ARM GAS  C:\Users\Ben\AppData\Local\Temp\ccvg9zGa.s 			page 1


   1              		.cpu cortex-m4
   2              		.eabi_attribute 27, 1
   3              		.eabi_attribute 28, 1
   4              		.eabi_attribute 20, 1
   5              		.eabi_attribute 21, 1
   6              		.eabi_attribute 23, 3
   7              		.eabi_attribute 24, 1
   8              		.eabi_attribute 25, 1
   9              		.eabi_attribute 26, 1
  10              		.eabi_attribute 30, 2
  11              		.eabi_attribute 34, 1
  12              		.eabi_attribute 18, 4
  13              		.file	"imu.c"
  14              		.text
  15              	.Ltext0:
  16              		.cfi_sections	.debug_frame
  17              		.section	.text.imu_reader_thd,"ax",%progbits
  18              		.align	1
  19              		.p2align 4,,15
  20              		.syntax unified
  21              		.thumb
  22              		.thumb_func
  23              		.fpu fpv4-sp-d16
  24              		.type	imu_reader_thd, %function
  25              	imu_reader_thd:
  26              	.LFB257:
  27              		.file 1 "imu.c"
  28              		.loc 1 43 0
  29              		.cfi_startproc
  30              		@ args = 0, pretend = 0, frame = 120
  31              		@ frame_needed = 0, uses_anonymous_args = 0
  32              	.LVL0:
  33 0000 2DE9F043 		push	{r4, r5, r6, r7, r8, r9, lr}
  34              		.cfi_def_cfa_offset 28
  35              		.cfi_offset 4, -28
  36              		.cfi_offset 5, -24
  37              		.cfi_offset 6, -20
  38              		.cfi_offset 7, -16
  39              		.cfi_offset 8, -12
  40              		.cfi_offset 9, -8
  41              		.cfi_offset 14, -4
  42              	.LBB63:
  43              	.LBB64:
  44              		.file 2 "../../lib/ChibiOS/os/rt/include/chregistry.h"
  45              		.loc 2 135 0
  46 0004 444C     		ldr	r4, .L16
  47 0006 4549     		ldr	r1, .L16+4
  48 0008 A269     		ldr	r2, [r4, #24]
  49              	.LBE64:
  50              	.LBE63:
  51              		.loc 1 51 0
  52 000a 454B     		ldr	r3, .L16+8
  53              		.loc 1 43 0
  54 000c 2DED028B 		vpush.64	{d8}
  55              		.cfi_def_cfa_offset 36
  56              		.cfi_offset 80, -36
  57              		.cfi_offset 81, -32
ARM GAS  C:\Users\Ben\AppData\Local\Temp\ccvg9zGa.s 			page 2


  58 0010 A1B0     		sub	sp, sp, #132
  59              		.cfi_def_cfa_offset 168
  60              	.LBB66:
  61              	.LBB65:
  62              		.loc 2 135 0
  63 0012 9161     		str	r1, [r2, #24]
  64              	.LVL1:
  65              	.LBE65:
  66              	.LBE66:
  67              		.loc 1 49 0
  68 0014 04A8     		add	r0, sp, #16
  69              	.LVL2:
  70              		.loc 1 50 0
  71 0016 02AD     		add	r5, sp, #8
  72              		.loc 1 51 0
  73 0018 5022     		movs	r2, #80
  74 001a 0146     		mov	r1, r0
  75 001c 0092     		str	r2, [sp]
  76              		.loc 1 49 0
  77 001e CDE90400 		strd	r0, r0, [sp, #16]
  78              		.loc 1 51 0
  79 0022 2A46     		mov	r2, r5
  80 0024 09A8     		add	r0, sp, #36
  81              		.loc 1 50 0
  82 0026 CDE90255 		strd	r5, r5, [sp, #8]
  83              		.loc 1 49 0
  84 002a 0025     		movs	r5, #0
  85 002c CDE90655 		strd	r5, r5, [sp, #24]
  86 0030 0895     		str	r5, [sp, #32]
  87              		.loc 1 51 0
  88 0032 FFF7FEFF 		bl	messagebus_topic_init
  89              	.LVL3:
  90              		.loc 1 52 0
  91 0036 3B4A     		ldr	r2, .L16+12
  92 0038 3B48     		ldr	r0, .L16+16
  93 003a 09A9     		add	r1, sp, #36
  94 003c FFF7FEFF 		bl	messagebus_advertise_topic
  95              	.LVL4:
  96              	.LBB67:
  97              	.LBB68:
  98              		.file 3 "../../lib/ChibiOS/os/rt/include/chthreads.h"
  99              		.loc 3 233 0
 100 0040 A369     		ldr	r3, [r4, #24]
 101              	.LBE68:
 102              	.LBE67:
 103              		.loc 1 56 0
 104 0042 93F82130 		ldrb	r3, [r3, #33]	@ zero_extendqisi2
 105 0046 5A07     		lsls	r2, r3, #29
 106 0048 61D4     		bmi	.L1
 107 004a 384E     		ldr	r6, .L16+20
 108              	.LBB70:
 109              	.LBB71:
 110              		.loc 1 35 0
 111 004c DFED388A 		vldr.32	s17, .L16+24
 112              		.loc 1 36 0
 113 0050 384F     		ldr	r7, .L16+28
 114 0052 9FED398A 		vldr.32	s16, .L16+32
ARM GAS  C:\Users\Ben\AppData\Local\Temp\ccvg9zGa.s 			page 3


 115 0056 0DE0     		b	.L7
 116              	.L4:
 117              	.LBE71:
 118              	.LBE70:
 119              		.loc 1 67 0
 120 0058 5022     		movs	r2, #80
 121 005a 3149     		ldr	r1, .L16+8
 122 005c 09A8     		add	r0, sp, #36
 123 005e FFF7FEFF 		bl	messagebus_topic_publish
 124              	.LVL5:
 125              		.loc 1 69 0
 126 0062 291D     		adds	r1, r5, #4
 127 0064 2846     		mov	r0, r5
 128 0066 FFF7FEFF 		bl	chThdSleepUntilWindowed
 129              	.LVL6:
 130              	.LBB73:
 131              	.LBB69:
 132              		.loc 3 233 0
 133 006a A369     		ldr	r3, [r4, #24]
 134              	.LBE69:
 135              	.LBE73:
 136              		.loc 1 56 0
 137 006c 93F82130 		ldrb	r3, [r3, #33]	@ zero_extendqisi2
 138 0070 5B07     		lsls	r3, r3, #29
 139 0072 4CD4     		bmi	.L1
 140              	.L7:
 141              	.LVL7:
 142              	.LBB74:
 143              	.LBB75:
 144              	.LBB76:
 145              	.LBB77:
 146              	.LBB78:
 147              	.LBB79:
 148              	.LBB80:
 149              		.file 4 "../../lib/ChibiOS/os/ext/CMSIS/include/core_cmFunc.h"
 150              		.loc 4 546 0
 151 0074 2023     		movs	r3, #32
 152              		.syntax unified
 153              	@ 546 "../../lib/ChibiOS/os/ext/CMSIS/include/core_cmFunc.h" 1
 154 0076 83F31188 		MSR basepri, r3
 155              	@ 0 "" 2
 156              	.LVL8:
 157              		.thumb
 158              		.syntax unified
 159              	.LBE80:
 160              	.LBE79:
 161              	.LBE78:
 162              		.file 5 "../../lib/ChibiOS/os/rt/include/chsys.h"
 163              		.loc 5 349 0
 164 007a FFF7FEFF 		bl	_stats_start_measure_crit_thd
 165              	.LVL9:
 166              		.loc 5 350 0
 167 007e FFF7FEFF 		bl	_dbg_check_lock
 168              	.LVL10:
 169              	.LBE77:
 170              	.LBE76:
 171              	.LBB81:
ARM GAS  C:\Users\Ben\AppData\Local\Temp\ccvg9zGa.s 			page 4


 172              	.LBB82:
 173              		.file 6 "../../lib/ChibiOS/os/rt/include/chvt.h"
 174              		.loc 6 231 0
 175 0082 A56A     		ldr	r5, [r4, #40]
 176              	.LBE82:
 177              	.LBE81:
 178              	.LBB83:
 179              	.LBB84:
 180              		.loc 5 360 0
 181 0084 FFF7FEFF 		bl	_dbg_check_unlock
 182              	.LVL11:
 183              		.loc 5 361 0
 184 0088 FFF7FEFF 		bl	_stats_stop_measure_crit_thd
 185              	.LVL12:
 186              		.loc 5 367 0
 187 008c 2368     		ldr	r3, [r4]
 188 008e A342     		cmp	r3, r4
 189 0090 07D0     		beq	.L3
 190 0092 A269     		ldr	r2, [r4, #24]
 191 0094 9B68     		ldr	r3, [r3, #8]
 192 0096 9268     		ldr	r2, [r2, #8]
 193 0098 9A42     		cmp	r2, r3
 194 009a 02D2     		bcs	.L3
 195 009c 2748     		ldr	r0, .L16+36
 196 009e FFF7FEFF 		bl	chSysHalt
 197              	.LVL13:
 198              	.L3:
 199              	.LBB85:
 200              	.LBB86:
 201              	.LBB87:
 202              		.loc 4 546 0
 203 00a2 0023     		movs	r3, #0
 204              		.syntax unified
 205              	@ 546 "../../lib/ChibiOS/os/ext/CMSIS/include/core_cmFunc.h" 1
 206 00a4 83F31188 		MSR basepri, r3
 207              	@ 0 "" 2
 208              	.LVL14:
 209              		.thumb
 210              		.syntax unified
 211              	.LBE87:
 212              	.LBE86:
 213              	.LBE85:
 214              	.LBE84:
 215              	.LBE83:
 216              	.LBE75:
 217              	.LBE74:
 218              		.loc 1 59 0
 219 00a8 3378     		ldrb	r3, [r6]	@ zero_extendqisi2
 220 00aa 002B     		cmp	r3, #0
 221 00ac D4D0     		beq	.L4
 222              		.loc 1 61 0
 223 00ae 244A     		ldr	r2, .L16+40
 224 00b0 A2F12401 		sub	r1, r2, #36
 225 00b4 A2F11E00 		sub	r0, r2, #30
 226 00b8 FFF7FEFF 		bl	mpu9250_read
 227              	.LVL15:
 228 00bc 2148     		ldr	r0, .L16+44
ARM GAS  C:\Users\Ben\AppData\Local\Temp\ccvg9zGa.s 			page 5


 229 00be A0F12801 		sub	r1, r0, #40
 230 00c2 01F10C0C 		add	ip, r1, #12
 231              	.LBB88:
 232              	.LBB72:
 233              		.loc 1 35 0
 234 00c6 43F6FF7E 		movw	lr, #16383
 235              	.LVL16:
 236              	.L6:
 237 00ca 30F9022B 		ldrsh	r2, [r0], #2
 238              		.loc 1 36 0
 239 00ce B0F90430 		ldrsh	r3, [r0, #4]
 240              		.loc 1 35 0
 241 00d2 002A     		cmp	r2, #0
 242 00d4 B8BF     		it	lt
 243 00d6 7244     		addlt	r2, r2, lr
 244              		.loc 1 36 0
 245 00d8 87FB0398 		smull	r9, r8, r7, r3
 246 00dc 9844     		add	r8, r8, r3
 247              		.loc 1 35 0
 248 00de 9213     		asrs	r2, r2, #14
 249              		.loc 1 36 0
 250 00e0 DB17     		asrs	r3, r3, #31
 251              		.loc 1 35 0
 252 00e2 07EE102A 		vmov	s14, r2	@ int
 253              		.loc 1 36 0
 254 00e6 C3EBA833 		rsb	r3, r3, r8, asr #14
 255 00ea 1BB2     		sxth	r3, r3
 256 00ec 07EE903A 		vmov	s15, r3	@ int
 257              		.loc 1 35 0
 258 00f0 B8EEC77A 		vcvt.f32.s32	s14, s14
 259              		.loc 1 36 0
 260 00f4 F8EEE77A 		vcvt.f32.s32	s15, s15
 261              		.loc 1 35 0
 262 00f8 27EE287A 		vmul.f32	s14, s14, s17
 263              		.loc 1 36 0
 264 00fc 67EE887A 		vmul.f32	s15, s15, s16
 265              		.loc 1 35 0
 266 0100 A1EC017A 		vstmia.32	r1!, {s14}
 267              		.loc 1 34 0
 268 0104 8C45     		cmp	ip, r1
 269              		.loc 1 36 0
 270 0106 C1ED027A 		vstr.32	s15, [r1, #8]
 271              		.loc 1 34 0
 272 010a DED1     		bne	.L6
 273 010c A4E7     		b	.L4
 274              	.L1:
 275              	.LBE72:
 276              	.LBE88:
 277              		.loc 1 72 0
 278 010e 21B0     		add	sp, sp, #132
 279              		.cfi_def_cfa_offset 36
 280              		@ sp needed
 281 0110 BDEC028B 		vldm	sp!, {d8}
 282              		.cfi_restore 80
 283              		.cfi_restore 81
 284              		.cfi_def_cfa_offset 28
 285 0114 BDE8F083 		pop	{r4, r5, r6, r7, r8, r9, pc}
ARM GAS  C:\Users\Ben\AppData\Local\Temp\ccvg9zGa.s 			page 6


 286              	.L17:
 287              		.align	2
 288              	.L16:
 289 0118 00000000 		.word	ch
 290 011c 00000000 		.word	.LANCHOR0
 291 0120 00000000 		.word	.LANCHOR1
 292 0124 00000000 		.word	.LC0
 293 0128 00000000 		.word	bus
 294 012c 00000000 		.word	.LANCHOR3
 295 0130 0AE81C41 		.word	1092413450
 296 0134 F71FE0B1 		.word	-1310711817
 297 0138 DB0F4940 		.word	1078530011
 298 013c 00000000 		.word	.LANCHOR2
 299 0140 4C000000 		.word	.LANCHOR1+76
 300 0144 28000000 		.word	.LANCHOR1+40
 301              		.cfi_endproc
 302              	.LFE257:
 303              		.size	imu_reader_thd, .-imu_reader_thd
 304              		.section	.text.imu_compute_units,"ax",%progbits
 305              		.align	1
 306              		.p2align 4,,15
 307              		.global	imu_compute_units
 308              		.syntax unified
 309              		.thumb
 310              		.thumb_func
 311              		.fpu fpv4-sp-d16
 312              		.type	imu_compute_units, %function
 313              	imu_compute_units:
 314              	.LFB256:
 315              		.loc 1 32 0
 316              		.cfi_startproc
 317              		@ args = 0, pretend = 0, frame = 0
 318              		@ frame_needed = 0, uses_anonymous_args = 0
 319              		@ link register save eliminated.
 320              	.LVL17:
 321 0000 F0B4     		push	{r4, r5, r6, r7}
 322              		.cfi_def_cfa_offset 16
 323              		.cfi_offset 4, -16
 324              		.cfi_offset 5, -12
 325              		.cfi_offset 6, -8
 326              		.cfi_offset 7, -4
 327 0002 174C     		ldr	r4, .L23
 328              	.LBB89:
 329              		.loc 1 35 0
 330 0004 9FED176A 		vldr.32	s12, .L23+4
 331              		.loc 1 36 0
 332 0008 174E     		ldr	r6, .L23+8
 333 000a DFED186A 		vldr.32	s13, .L23+12
 334 000e A4F12801 		sub	r1, r4, #40
 335 0012 01F10C05 		add	r5, r1, #12
 336              		.loc 1 35 0
 337 0016 43F6FF77 		movw	r7, #16383
 338              	.LVL18:
 339              	.L20:
 340              		.loc 1 35 0 is_stmt 0 discriminator 3
 341 001a 34F9022B 		ldrsh	r2, [r4], #2
 342              		.loc 1 36 0 is_stmt 1 discriminator 3
ARM GAS  C:\Users\Ben\AppData\Local\Temp\ccvg9zGa.s 			page 7


 343 001e B4F90430 		ldrsh	r3, [r4, #4]
 344              		.loc 1 35 0 discriminator 3
 345 0022 002A     		cmp	r2, #0
 346 0024 B8BF     		it	lt
 347 0026 D219     		addlt	r2, r2, r7
 348              		.loc 1 36 0 discriminator 3
 349 0028 86FB03C0 		smull	ip, r0, r6, r3
 350 002c 1844     		add	r0, r0, r3
 351              		.loc 1 35 0 discriminator 3
 352 002e 9213     		asrs	r2, r2, #14
 353              		.loc 1 36 0 discriminator 3
 354 0030 DB17     		asrs	r3, r3, #31
 355              		.loc 1 35 0 discriminator 3
 356 0032 07EE102A 		vmov	s14, r2	@ int
 357              		.loc 1 36 0 discriminator 3
 358 0036 C3EBA033 		rsb	r3, r3, r0, asr #14
 359 003a 1BB2     		sxth	r3, r3
 360 003c 07EE903A 		vmov	s15, r3	@ int
 361              		.loc 1 35 0 discriminator 3
 362 0040 B8EEC77A 		vcvt.f32.s32	s14, s14
 363              		.loc 1 36 0 discriminator 3
 364 0044 F8EEE77A 		vcvt.f32.s32	s15, s15
 365              		.loc 1 35 0 discriminator 3
 366 0048 27EE067A 		vmul.f32	s14, s14, s12
 367              		.loc 1 36 0 discriminator 3
 368 004c 67EEA67A 		vmul.f32	s15, s15, s13
 369              		.loc 1 35 0 discriminator 3
 370 0050 A1EC017A 		vstmia.32	r1!, {s14}
 371              		.loc 1 34 0 discriminator 3
 372 0054 8D42     		cmp	r5, r1
 373              		.loc 1 36 0 discriminator 3
 374 0056 C1ED027A 		vstr.32	s15, [r1, #8]
 375              		.loc 1 34 0 discriminator 3
 376 005a DED1     		bne	.L20
 377              	.LBE89:
 378              		.loc 1 38 0
 379 005c F0BC     		pop	{r4, r5, r6, r7}
 380              		.cfi_restore 7
 381              		.cfi_restore 6
 382              		.cfi_restore 5
 383              		.cfi_restore 4
 384              		.cfi_def_cfa_offset 0
 385 005e 7047     		bx	lr
 386              	.L24:
 387              		.align	2
 388              	.L23:
 389 0060 28000000 		.word	.LANCHOR1+40
 390 0064 0AE81C41 		.word	1092413450
 391 0068 F71FE0B1 		.word	-1310711817
 392 006c DB0F4940 		.word	1078530011
 393              		.cfi_endproc
 394              	.LFE256:
 395              		.size	imu_compute_units, .-imu_compute_units
 396              		.section	.text.imu_start,"ax",%progbits
 397              		.align	1
 398              		.p2align 4,,15
 399              		.global	imu_start
ARM GAS  C:\Users\Ben\AppData\Local\Temp\ccvg9zGa.s 			page 8


 400              		.syntax unified
 401              		.thumb
 402              		.thumb_func
 403              		.fpu fpv4-sp-d16
 404              		.type	imu_start, %function
 405              	imu_start:
 406              	.LFB258:
 407              		.loc 1 80 0
 408              		.cfi_startproc
 409              		@ args = 0, pretend = 0, frame = 0
 410              		@ frame_needed = 0, uses_anonymous_args = 0
 411              	.LVL19:
 412 0000 00B5     		push	{lr}
 413              		.cfi_def_cfa_offset 4
 414              		.cfi_offset 14, -4
 415              		.loc 1 83 0
 416 0002 4FF4C840 		mov	r0, #25600
 417              		.loc 1 80 0
 418 0006 83B0     		sub	sp, sp, #12
 419              		.cfi_def_cfa_offset 16
 420              		.loc 1 83 0
 421 0008 FFF7FEFF 		bl	mpu9250_setup
 422              	.LVL20:
 423              		.loc 1 94 0
 424 000c 10B9     		cbnz	r0, .L26
 425              		.loc 1 95 0
 426 000e 084B     		ldr	r3, .L28
 427 0010 0122     		movs	r2, #1
 428 0012 1A70     		strb	r2, [r3]
 429              	.L26:
 430              		.loc 1 99 0
 431 0014 0023     		movs	r3, #0
 432 0016 0093     		str	r3, [sp]
 433 0018 4022     		movs	r2, #64
 434 001a 064B     		ldr	r3, .L28+4
 435 001c 0648     		ldr	r0, .L28+8
 436              	.LVL21:
 437 001e 4FF4AF61 		mov	r1, #1400
 438 0022 FFF7FEFF 		bl	chThdCreateStatic
 439              	.LVL22:
 440 0026 054B     		ldr	r3, .L28+12
 441 0028 1860     		str	r0, [r3]
 442              		.loc 1 100 0
 443 002a 03B0     		add	sp, sp, #12
 444              		.cfi_def_cfa_offset 4
 445              		@ sp needed
 446 002c 5DF804FB 		ldr	pc, [sp], #4
 447              	.L29:
 448              		.align	2
 449              	.L28:
 450 0030 00000000 		.word	.LANCHOR3
 451 0034 00000000 		.word	imu_reader_thd
 452 0038 00000000 		.word	.LANCHOR4
 453 003c 00000000 		.word	.LANCHOR5
 454              		.cfi_endproc
 455              	.LFE258:
 456              		.size	imu_start, .-imu_start
ARM GAS  C:\Users\Ben\AppData\Local\Temp\ccvg9zGa.s 			page 9


 457              		.section	.text.imu_stop,"ax",%progbits
 458              		.align	1
 459              		.p2align 4,,15
 460              		.global	imu_stop
 461              		.syntax unified
 462              		.thumb
 463              		.thumb_func
 464              		.fpu fpv4-sp-d16
 465              		.type	imu_stop, %function
 466              	imu_stop:
 467              	.LFB259:
 468              		.loc 1 102 0
 469              		.cfi_startproc
 470              		@ args = 0, pretend = 0, frame = 0
 471              		@ frame_needed = 0, uses_anonymous_args = 0
 472 0000 10B5     		push	{r4, lr}
 473              		.cfi_def_cfa_offset 8
 474              		.cfi_offset 4, -8
 475              		.cfi_offset 14, -4
 476              		.loc 1 103 0
 477 0002 054C     		ldr	r4, .L32
 478 0004 2068     		ldr	r0, [r4]
 479 0006 FFF7FEFF 		bl	chThdTerminate
 480              	.LVL23:
 481              		.loc 1 104 0
 482 000a 2068     		ldr	r0, [r4]
 483 000c FFF7FEFF 		bl	chThdWait
 484              	.LVL24:
 485              		.loc 1 105 0
 486 0010 0023     		movs	r3, #0
 487 0012 2360     		str	r3, [r4]
 488              		.loc 1 106 0
 489 0014 10BD     		pop	{r4, pc}
 490              	.L33:
 491 0016 00BF     		.align	2
 492              	.L32:
 493 0018 00000000 		.word	.LANCHOR5
 494              		.cfi_endproc
 495              	.LFE259:
 496              		.size	imu_stop, .-imu_stop
 497              		.section	.text.imu_compute_offset,"ax",%progbits
 498              		.align	1
 499              		.p2align 4,,15
 500              		.global	imu_compute_offset
 501              		.syntax unified
 502              		.thumb
 503              		.thumb_func
 504              		.fpu fpv4-sp-d16
 505              		.type	imu_compute_offset, %function
 506              	imu_compute_offset:
 507              	.LFB260:
 508              		.loc 1 108 0
 509              		.cfi_startproc
 510              		@ args = 0, pretend = 0, frame = 24
 511              		@ frame_needed = 0, uses_anonymous_args = 0
 512              	.LVL25:
 513 0000 2DE9F047 		push	{r4, r5, r6, r7, r8, r9, r10, lr}
ARM GAS  C:\Users\Ben\AppData\Local\Temp\ccvg9zGa.s 			page 10


 514              		.cfi_def_cfa_offset 32
 515              		.cfi_offset 4, -32
 516              		.cfi_offset 5, -28
 517              		.cfi_offset 6, -24
 518              		.cfi_offset 7, -20
 519              		.cfi_offset 8, -16
 520              		.cfi_offset 9, -12
 521              		.cfi_offset 10, -8
 522              		.cfi_offset 14, -4
 523              	.LBB90:
 524              		.loc 1 112 0
 525 0004 0E46     		mov	r6, r1
 526              	.LBE90:
 527              		.loc 1 108 0
 528 0006 86B0     		sub	sp, sp, #24
 529              		.cfi_def_cfa_offset 56
 530              	.LBB92:
 531              		.loc 1 112 0
 532 0008 A9B3     		cbz	r1, .L46
 533              		.loc 1 113 0
 534 000a DFF87480 		ldr	r8, .L47+4
 535 000e 0746     		mov	r7, r0
 536              		.loc 1 112 0
 537 0010 0024     		movs	r4, #0
 538 0012 E946     		mov	r9, sp
 539 0014 03AD     		add	r5, sp, #12
 540              	.LVL26:
 541              	.L37:
 542              		.loc 1 113 0
 543 0016 5022     		movs	r2, #80
 544 0018 4146     		mov	r1, r8
 545 001a 3846     		mov	r0, r7
 546 001c FFF7FEFF 		bl	messagebus_topic_wait
 547              	.LVL27:
 548 0020 DFF860E0 		ldr	lr, .L47+8
 549 0024 4B46     		mov	r3, r9
 550 0026 0DF1080C 		add	ip, sp, #8
 551              	.LVL28:
 552              	.L36:
 553              	.LBB91:
 554              		.loc 1 115 0 discriminator 3
 555 002a 3EF9020B 		ldrsh	r0, [lr], #2
 556 002e 1968     		ldr	r1, [r3]
 557              		.loc 1 116 0 discriminator 3
 558 0030 5CF8042F 		ldr	r2, [ip, #4]!
 559 0034 BEF904A0 		ldrsh	r10, [lr, #4]
 560              		.loc 1 115 0 discriminator 3
 561 0038 0144     		add	r1, r1, r0
 562 003a 43F8041B 		str	r1, [r3], #4
 563              		.loc 1 116 0 discriminator 3
 564 003e 5244     		add	r2, r2, r10
 565              		.loc 1 114 0 discriminator 3
 566 0040 9D42     		cmp	r5, r3
 567              		.loc 1 116 0 discriminator 3
 568 0042 CCF80020 		str	r2, [ip]
 569              		.loc 1 114 0 discriminator 3
 570 0046 F0D1     		bne	.L36
ARM GAS  C:\Users\Ben\AppData\Local\Temp\ccvg9zGa.s 			page 11


 571              	.LBE91:
 572              		.loc 1 112 0 discriminator 2
 573 0048 0134     		adds	r4, r4, #1
 574              	.LVL29:
 575 004a A4B2     		uxth	r4, r4
 576              	.LVL30:
 577 004c A642     		cmp	r6, r4
 578 004e E2D1     		bne	.L37
 579              	.LVL31:
 580              	.L35:
 581 0050 0A49     		ldr	r1, .L47
 582              		.loc 1 112 0 is_stmt 0
 583 0052 0023     		movs	r3, #0
 584              	.L38:
 585              	.LVL32:
 586              	.LBE92:
 587              	.LBB93:
 588              		.loc 1 120 0 is_stmt 1 discriminator 3
 589 0054 59F82320 		ldr	r2, [r9, r3, lsl #2]
 590 0058 B2FBF6F2 		udiv	r2, r2, r6
 591 005c 21F8022B 		strh	r2, [r1], #2	@ movhi
 592              		.loc 1 121 0 discriminator 3
 593 0060 55F82320 		ldr	r2, [r5, r3, lsl #2]
 594 0064 B2FBF6F2 		udiv	r2, r2, r6
 595 0068 0133     		adds	r3, r3, #1
 596              	.LVL33:
 597              		.loc 1 119 0 discriminator 3
 598 006a 032B     		cmp	r3, #3
 599              		.loc 1 121 0 discriminator 3
 600 006c 8A80     		strh	r2, [r1, #4]	@ movhi
 601              		.loc 1 119 0 discriminator 3
 602 006e F1D1     		bne	.L38
 603              	.LBE93:
 604              		.loc 1 123 0
 605 0070 06B0     		add	sp, sp, #24
 606              		.cfi_remember_state
 607              		.cfi_def_cfa_offset 32
 608              		@ sp needed
 609 0072 BDE8F087 		pop	{r4, r5, r6, r7, r8, r9, r10, pc}
 610              	.LVL34:
 611              	.L46:
 612              		.cfi_restore_state
 613 0076 E946     		mov	r9, sp
 614 0078 03AD     		add	r5, sp, #12
 615 007a E9E7     		b	.L35
 616              	.L48:
 617              		.align	2
 618              	.L47:
 619 007c 34000000 		.word	.LANCHOR1+52
 620 0080 00000000 		.word	.LANCHOR1
 621 0084 28000000 		.word	.LANCHOR1+40
 622              		.cfi_endproc
 623              	.LFE260:
 624              		.size	imu_compute_offset, .-imu_compute_offset
 625              		.section	.text.get_acc,"ax",%progbits
 626              		.align	1
 627              		.p2align 4,,15
ARM GAS  C:\Users\Ben\AppData\Local\Temp\ccvg9zGa.s 			page 12


 628              		.global	get_acc
 629              		.syntax unified
 630              		.thumb
 631              		.thumb_func
 632              		.fpu fpv4-sp-d16
 633              		.type	get_acc, %function
 634              	get_acc:
 635              	.LFB261:
 636              		.loc 1 125 0
 637              		.cfi_startproc
 638              		@ args = 0, pretend = 0, frame = 0
 639              		@ frame_needed = 0, uses_anonymous_args = 0
 640              		@ link register save eliminated.
 641              	.LVL35:
 642              		.loc 1 126 0
 643 0000 0228     		cmp	r0, #2
 644              		.loc 1 127 0
 645 0002 9DBF     		ittte	ls
 646 0004 1430     		addls	r0, r0, #20
 647              	.LVL36:
 648 0006 024B     		ldrls	r3, .L52
 649 0008 33F91000 		ldrshls	r0, [r3, r0, lsl #1]
 650              		.loc 1 129 0
 651 000c 0020     		movhi	r0, #0
 652              		.loc 1 130 0
 653 000e 7047     		bx	lr
 654              	.L53:
 655              		.align	2
 656              	.L52:
 657 0010 00000000 		.word	.LANCHOR1
 658              		.cfi_endproc
 659              	.LFE261:
 660              		.size	get_acc, .-get_acc
 661              		.section	.text.get_acc_all,"ax",%progbits
 662              		.align	1
 663              		.p2align 4,,15
 664              		.global	get_acc_all
 665              		.syntax unified
 666              		.thumb
 667              		.thumb_func
 668              		.fpu fpv4-sp-d16
 669              		.type	get_acc_all, %function
 670              	get_acc_all:
 671              	.LFB262:
 672              		.loc 1 132 0
 673              		.cfi_startproc
 674              		@ args = 0, pretend = 0, frame = 0
 675              		@ frame_needed = 0, uses_anonymous_args = 0
 676              		@ link register save eliminated.
 677              	.LVL37:
 678              		.loc 1 133 0
 679 0000 054B     		ldr	r3, .L55
 680 0002 B3F92820 		ldrsh	r2, [r3, #40]
 681 0006 0280     		strh	r2, [r0]	@ movhi
 682              		.loc 1 134 0
 683 0008 B3F92A20 		ldrsh	r2, [r3, #42]
 684 000c 4280     		strh	r2, [r0, #2]	@ movhi
ARM GAS  C:\Users\Ben\AppData\Local\Temp\ccvg9zGa.s 			page 13


 685              		.loc 1 135 0
 686 000e B3F92C30 		ldrsh	r3, [r3, #44]
 687 0012 8380     		strh	r3, [r0, #4]	@ movhi
 688              		.loc 1 136 0
 689 0014 7047     		bx	lr
 690              	.L56:
 691 0016 00BF     		.align	2
 692              	.L55:
 693 0018 00000000 		.word	.LANCHOR1
 694              		.cfi_endproc
 695              	.LFE262:
 696              		.size	get_acc_all, .-get_acc_all
 697              		.section	.text.get_acc_offset,"ax",%progbits
 698              		.align	1
 699              		.p2align 4,,15
 700              		.global	get_acc_offset
 701              		.syntax unified
 702              		.thumb
 703              		.thumb_func
 704              		.fpu fpv4-sp-d16
 705              		.type	get_acc_offset, %function
 706              	get_acc_offset:
 707              	.LFB263:
 708              		.loc 1 139 0
 709              		.cfi_startproc
 710              		@ args = 0, pretend = 0, frame = 0
 711              		@ frame_needed = 0, uses_anonymous_args = 0
 712              		@ link register save eliminated.
 713              	.LVL38:
 714              		.loc 1 140 0
 715 0000 0228     		cmp	r0, #2
 716              		.loc 1 141 0
 717 0002 9DBF     		ittte	ls
 718 0004 034B     		ldrls	r3, .L60
 719 0006 03EB4000 		addls	r0, r3, r0, lsl #1
 720              	.LVL39:
 721 000a B0F93400 		ldrshls	r0, [r0, #52]
 722              		.loc 1 143 0
 723 000e 0020     		movhi	r0, #0
 724              		.loc 1 144 0
 725 0010 7047     		bx	lr
 726              	.L61:
 727 0012 00BF     		.align	2
 728              	.L60:
 729 0014 00000000 		.word	.LANCHOR1
 730              		.cfi_endproc
 731              	.LFE263:
 732              		.size	get_acc_offset, .-get_acc_offset
 733              		.section	.text.get_acceleration,"ax",%progbits
 734              		.align	1
 735              		.p2align 4,,15
 736              		.global	get_acceleration
 737              		.syntax unified
 738              		.thumb
 739              		.thumb_func
 740              		.fpu fpv4-sp-d16
 741              		.type	get_acceleration, %function
ARM GAS  C:\Users\Ben\AppData\Local\Temp\ccvg9zGa.s 			page 14


 742              	get_acceleration:
 743              	.LFB264:
 744              		.loc 1 146 0
 745              		.cfi_startproc
 746              		@ args = 0, pretend = 0, frame = 0
 747              		@ frame_needed = 0, uses_anonymous_args = 0
 748              		@ link register save eliminated.
 749              	.LVL40:
 750              		.loc 1 147 0
 751 0000 0228     		cmp	r0, #2
 752              		.loc 1 148 0
 753 0002 9DBF     		ittte	ls
 754 0004 034B     		ldrls	r3, .L65
 755 0006 03EB8000 		addls	r0, r3, r0, lsl #2
 756              	.LVL41:
 757 000a 90ED000A 		vldrls.32	s0, [r0]
 758              		.loc 1 150 0
 759 000e 9FED020A 		vldrhi.32	s0, .L65+4
 760              		.loc 1 151 0
 761 0012 7047     		bx	lr
 762              	.L66:
 763              		.align	2
 764              	.L65:
 765 0014 00000000 		.word	.LANCHOR1
 766 0018 00000000 		.word	0
 767              		.cfi_endproc
 768              	.LFE264:
 769              		.size	get_acceleration, .-get_acceleration
 770              		.section	.text.get_gyro,"ax",%progbits
 771              		.align	1
 772              		.p2align 4,,15
 773              		.global	get_gyro
 774              		.syntax unified
 775              		.thumb
 776              		.thumb_func
 777              		.fpu fpv4-sp-d16
 778              		.type	get_gyro, %function
 779              	get_gyro:
 780              	.LFB265:
 781              		.loc 1 154 0
 782              		.cfi_startproc
 783              		@ args = 0, pretend = 0, frame = 0
 784              		@ frame_needed = 0, uses_anonymous_args = 0
 785              		@ link register save eliminated.
 786              	.LVL42:
 787              		.loc 1 155 0
 788 0000 0228     		cmp	r0, #2
 789              		.loc 1 156 0
 790 0002 9DBF     		ittte	ls
 791 0004 034B     		ldrls	r3, .L70
 792 0006 03EB4000 		addls	r0, r3, r0, lsl #1
 793              	.LVL43:
 794 000a B0F92E00 		ldrshls	r0, [r0, #46]
 795              		.loc 1 158 0
 796 000e 0020     		movhi	r0, #0
 797              		.loc 1 159 0
 798 0010 7047     		bx	lr
ARM GAS  C:\Users\Ben\AppData\Local\Temp\ccvg9zGa.s 			page 15


 799              	.L71:
 800 0012 00BF     		.align	2
 801              	.L70:
 802 0014 00000000 		.word	.LANCHOR1
 803              		.cfi_endproc
 804              	.LFE265:
 805              		.size	get_gyro, .-get_gyro
 806              		.section	.text.get_gyro_all,"ax",%progbits
 807              		.align	1
 808              		.p2align 4,,15
 809              		.global	get_gyro_all
 810              		.syntax unified
 811              		.thumb
 812              		.thumb_func
 813              		.fpu fpv4-sp-d16
 814              		.type	get_gyro_all, %function
 815              	get_gyro_all:
 816              	.LFB266:
 817              		.loc 1 161 0
 818              		.cfi_startproc
 819              		@ args = 0, pretend = 0, frame = 0
 820              		@ frame_needed = 0, uses_anonymous_args = 0
 821              		@ link register save eliminated.
 822              	.LVL44:
 823              		.loc 1 162 0
 824 0000 054B     		ldr	r3, .L73
 825 0002 B3F92E20 		ldrsh	r2, [r3, #46]
 826 0006 0280     		strh	r2, [r0]	@ movhi
 827              		.loc 1 163 0
 828 0008 B3F93020 		ldrsh	r2, [r3, #48]
 829 000c 4280     		strh	r2, [r0, #2]	@ movhi
 830              		.loc 1 164 0
 831 000e B3F93230 		ldrsh	r3, [r3, #50]
 832 0012 8380     		strh	r3, [r0, #4]	@ movhi
 833              		.loc 1 165 0
 834 0014 7047     		bx	lr
 835              	.L74:
 836 0016 00BF     		.align	2
 837              	.L73:
 838 0018 00000000 		.word	.LANCHOR1
 839              		.cfi_endproc
 840              	.LFE266:
 841              		.size	get_gyro_all, .-get_gyro_all
 842              		.section	.text.get_gyro_offset,"ax",%progbits
 843              		.align	1
 844              		.p2align 4,,15
 845              		.global	get_gyro_offset
 846              		.syntax unified
 847              		.thumb
 848              		.thumb_func
 849              		.fpu fpv4-sp-d16
 850              		.type	get_gyro_offset, %function
 851              	get_gyro_offset:
 852              	.LFB267:
 853              		.loc 1 167 0
 854              		.cfi_startproc
 855              		@ args = 0, pretend = 0, frame = 0
ARM GAS  C:\Users\Ben\AppData\Local\Temp\ccvg9zGa.s 			page 16


 856              		@ frame_needed = 0, uses_anonymous_args = 0
 857              		@ link register save eliminated.
 858              	.LVL45:
 859              		.loc 1 168 0
 860 0000 0228     		cmp	r0, #2
 861              		.loc 1 169 0
 862 0002 9DBF     		ittte	ls
 863 0004 034B     		ldrls	r3, .L78
 864 0006 03EB4000 		addls	r0, r3, r0, lsl #1
 865              	.LVL46:
 866 000a B0F93A00 		ldrshls	r0, [r0, #58]
 867              		.loc 1 171 0
 868 000e 0020     		movhi	r0, #0
 869              		.loc 1 172 0
 870 0010 7047     		bx	lr
 871              	.L79:
 872 0012 00BF     		.align	2
 873              	.L78:
 874 0014 00000000 		.word	.LANCHOR1
 875              		.cfi_endproc
 876              	.LFE267:
 877              		.size	get_gyro_offset, .-get_gyro_offset
 878              		.section	.text.get_gyro_rate,"ax",%progbits
 879              		.align	1
 880              		.p2align 4,,15
 881              		.global	get_gyro_rate
 882              		.syntax unified
 883              		.thumb
 884              		.thumb_func
 885              		.fpu fpv4-sp-d16
 886              		.type	get_gyro_rate, %function
 887              	get_gyro_rate:
 888              	.LFB268:
 889              		.loc 1 174 0
 890              		.cfi_startproc
 891              		@ args = 0, pretend = 0, frame = 0
 892              		@ frame_needed = 0, uses_anonymous_args = 0
 893              		@ link register save eliminated.
 894              	.LVL47:
 895              		.loc 1 175 0
 896 0000 0228     		cmp	r0, #2
 897              		.loc 1 176 0
 898 0002 9DBF     		ittte	ls
 899 0004 034B     		ldrls	r3, .L83
 900 0006 03EB8000 		addls	r0, r3, r0, lsl #2
 901              	.LVL48:
 902 000a 90ED030A 		vldrls.32	s0, [r0, #12]
 903              		.loc 1 178 0
 904 000e 9FED020A 		vldrhi.32	s0, .L83+4
 905              		.loc 1 179 0
 906 0012 7047     		bx	lr
 907              	.L84:
 908              		.align	2
 909              	.L83:
 910 0014 00000000 		.word	.LANCHOR1
 911 0018 00000000 		.word	0
 912              		.cfi_endproc
ARM GAS  C:\Users\Ben\AppData\Local\Temp\ccvg9zGa.s 			page 17


 913              	.LFE268:
 914              		.size	get_gyro_rate, .-get_gyro_rate
 915              		.section	.text.get_temperature,"ax",%progbits
 916              		.align	1
 917              		.p2align 4,,15
 918              		.global	get_temperature
 919              		.syntax unified
 920              		.thumb
 921              		.thumb_func
 922              		.fpu fpv4-sp-d16
 923              		.type	get_temperature, %function
 924              	get_temperature:
 925              	.LFB269:
 926              		.loc 1 181 0
 927              		.cfi_startproc
 928              		@ args = 0, pretend = 0, frame = 0
 929              		@ frame_needed = 0, uses_anonymous_args = 0
 930              		@ link register save eliminated.
 931              		.loc 1 182 0
 932 0000 014B     		ldr	r3, .L86
 933              		.loc 1 183 0
 934 0002 93ED060A 		vldr.32	s0, [r3, #24]
 935 0006 7047     		bx	lr
 936              	.L87:
 937              		.align	2
 938              	.L86:
 939 0008 00000000 		.word	.LANCHOR1
 940              		.cfi_endproc
 941              	.LFE269:
 942              		.size	get_temperature, .-get_temperature
 943              		.section	.bss.imuThd,"aw",%nobits
 944              		.align	2
 945              		.set	.LANCHOR5,. + 0
 946              		.type	imuThd, %object
 947              		.size	imuThd, 4
 948              	imuThd:
 949 0000 00000000 		.space	4
 950              		.section	.bss.imu_configured,"aw",%nobits
 951              		.set	.LANCHOR3,. + 0
 952              		.type	imu_configured, %object
 953              		.size	imu_configured, 1
 954              	imu_configured:
 955 0000 00       		.space	1
 956              		.section	.bss.imu_reader_thd_wa.10145,"aw",%nobits
 957              		.align	3
 958              		.set	.LANCHOR4,. + 0
 959              		.type	imu_reader_thd_wa.10145, %object
 960              		.size	imu_reader_thd_wa.10145, 1400
 961              	imu_reader_thd_wa.10145:
 962 0000 00000000 		.space	1400
 962      00000000 
 962      00000000 
 962      00000000 
 962      00000000 
 963              		.section	.bss.imu_values,"aw",%nobits
 964              		.align	2
 965              		.set	.LANCHOR1,. + 0
ARM GAS  C:\Users\Ben\AppData\Local\Temp\ccvg9zGa.s 			page 18


 966              		.type	imu_values, %object
 967              		.size	imu_values, 80
 968              	imu_values:
 969 0000 00000000 		.space	80
 969      00000000 
 969      00000000 
 969      00000000 
 969      00000000 
 970              		.section	.rodata.__FUNCTION__.10133,"a",%progbits
 971              		.align	2
 972              		.set	.LANCHOR0,. + 0
 973              		.type	__FUNCTION__.10133, %object
 974              		.size	__FUNCTION__.10133, 15
 975              	__FUNCTION__.10133:
 976 0000 696D755F 		.ascii	"imu_reader_thd\000"
 976      72656164 
 976      65725F74 
 976      686400
 977              		.section	.rodata.__func__.7153,"a",%progbits
 978              		.align	2
 979              		.set	.LANCHOR2,. + 0
 980              		.type	__func__.7153, %object
 981              		.size	__func__.7153, 12
 982              	__func__.7153:
 983 0000 63685379 		.ascii	"chSysUnlock\000"
 983      73556E6C 
 983      6F636B00 
 984              		.section	.rodata.imu_reader_thd.str1.4,"aMS",%progbits,1
 985              		.align	2
 986              	.LC0:
 987 0000 2F696D75 		.ascii	"/imu\000"
 987      00
 988              		.text
 989              	.Letext0:
 990              		.file 7 "c:\\users\\ben\\documents\\eclipse_e-puck2_win32_29_jan_2020\\eclipse_e-puck2\\tools\\gcc
 991              		.file 8 "c:\\users\\ben\\documents\\eclipse_e-puck2_win32_29_jan_2020\\eclipse_e-puck2\\tools\\gcc
 992              		.file 9 "c:\\users\\ben\\documents\\eclipse_e-puck2_win32_29_jan_2020\\eclipse_e-puck2\\tools\\gcc
 993              		.file 10 "../../lib/ChibiOS/os/rt/ports/ARMCMx/compilers/GCC/chtypes.h"
 994              		.file 11 "../../lib/ChibiOS/os/rt/include/chsystypes.h"
 995              		.file 12 "../../lib/ChibiOS/os/rt/include/chschd.h"
 996              		.file 13 "../../lib/ChibiOS/os/ext/CMSIS/include/core_cm4.h"
 997              		.file 14 "../../lib/ChibiOS/os/ext/CMSIS/ST/system_stm32f4xx.h"
 998              		.file 15 "../../lib/ChibiOS/os/ext/CMSIS/ST/stm32f407xx.h"
 999              		.file 16 "../../lib/ChibiOS/os/rt/ports/ARMCMx/chcore.h"
 1000              		.file 17 "../../lib/ChibiOS/os/rt/ports/ARMCMx/chcore_v7m.h"
 1001              		.file 18 "../../lib/ChibiOS/os/rt/include/chdebug.h"
 1002              		.file 19 "../../lib/ChibiOS/os/rt/include/chtm.h"
 1003              		.file 20 "../../lib/ChibiOS/os/rt/include/chstats.h"
 1004              		.file 21 "../../lib/ChibiOS/os/rt/include/chsem.h"
 1005              		.file 22 "../../lib/ChibiOS/os/rt/include/chmtx.h"
 1006              		.file 23 "../../lib/ChibiOS/os/rt/include/chcond.h"
 1007              		.file 24 "../../lib/ChibiOS/os/rt/include/chevents.h"
 1008              		.file 25 "../../lib/ChibiOS/os/rt/include/chqueues.h"
 1009              		.file 26 "../../lib/ChibiOS/os/hal/ports/STM32/STM32F4xx/stm32_dma.h"
 1010              		.file 27 "../../lib/ChibiOS/os/hal/ports/STM32/LLD/GPIOv2/pal_lld.h"
 1011              		.file 28 "../../lib/ChibiOS/os/hal/include/gpt.h"
 1012              		.file 29 "../../lib/ChibiOS/os/hal/ports/STM32/LLD/TIMv1/gpt_lld.h"
ARM GAS  C:\Users\Ben\AppData\Local\Temp\ccvg9zGa.s 			page 19


 1013              		.file 30 "../../lib/ChibiOS/os/hal/ports/STM32/LLD/TIMv1/stm32_tim.h"
 1014              		.file 31 "../../lib/ChibiOS/os/hal/include/i2c.h"
 1015              		.file 32 "../../lib/ChibiOS/os/hal/ports/STM32/LLD/I2Cv1/i2c_lld.h"
 1016              		.file 33 "../../lib/ChibiOS/os/hal/include/serial.h"
 1017              		.file 34 "../../lib/ChibiOS/os/hal/ports/STM32/LLD/USARTv1/serial_lld.h"
 1018              		.file 35 "../../lib/ChibiOS/os/hal/include/usb.h"
 1019              		.file 36 "../../lib/ChibiOS/os/hal/ports/STM32/LLD/OTGv1/usb_lld.h"
 1020              		.file 37 "../../lib/ChibiOS/os/hal/ports/STM32/LLD/OTGv1/stm32_otg.h"
 1021              		.file 38 "c:\\users\\ben\\documents\\eclipse_e-puck2_win32_29_jan_2020\\eclipse_e-puck2\\tools\\gc
 1022              		.file 39 "c:\\users\\ben\\documents\\eclipse_e-puck2_win32_29_jan_2020\\eclipse_e-puck2\\tools\\gc
 1023              		.file 40 "c:\\users\\ben\\documents\\eclipse_e-puck2_win32_29_jan_2020\\eclipse_e-puck2\\tools\\gc
 1024              		.file 41 "c:\\users\\ben\\documents\\eclipse_e-puck2_win32_29_jan_2020\\eclipse_e-puck2\\tools\\gc
 1025              		.file 42 "c:\\users\\ben\\documents\\eclipse_e-puck2_win32_29_jan_2020\\eclipse_e-puck2\\tools\\gc
 1026              		.file 43 "../../lib/msgbus/messagebus.h"
 1027              		.file 44 "./mpu9250.h"
 1028              		.file 45 "./imu.h"