ARM GAS  C:\Users\Ben\AppData\Local\Temp\ccnrYrBt.s 			page 1


   1              		.cpu cortex-m4
   2              		.eabi_attribute 27, 1
   3              		.eabi_attribute 28, 1
   4              		.eabi_attribute 20, 1
   5              		.eabi_attribute 21, 1
   6              		.eabi_attribute 23, 3
   7              		.eabi_attribute 24, 1
   8              		.eabi_attribute 25, 1
   9              		.eabi_attribute 26, 1
  10              		.eabi_attribute 30, 2
  11              		.eabi_attribute 34, 1
  12              		.eabi_attribute 18, 4
  13              		.file	"main.c"
  14              		.text
  15              	.Ltext0:
  16              		.cfi_sections	.debug_frame
  17              		.section	.text.chprintf.constprop.0,"ax",%progbits
  18              		.align	1
  19              		.p2align 4,,15
  20              		.syntax unified
  21              		.thumb
  22              		.thumb_func
  23              		.fpu fpv4-sp-d16
  24              		.type	chprintf.constprop.0, %function
  25              	chprintf.constprop.0:
  26              	.LFB264:
  27              		.file 1 "../../lib/ChibiOS/os/hal/lib/streams/chprintf.h"
  28              		.loc 1 69 0
  29              		.cfi_startproc
  30              		@ args = 4, pretend = 12, frame = 8
  31              		@ frame_needed = 0, uses_anonymous_args = 1
  32              	.LVL0:
  33 0000 0EB4     		push	{r1, r2, r3}
  34              		.cfi_def_cfa_offset 12
  35              		.cfi_offset 1, -12
  36              		.cfi_offset 2, -8
  37              		.cfi_offset 3, -4
  38 0002 00B5     		push	{lr}
  39              		.cfi_def_cfa_offset 16
  40              		.cfi_offset 14, -16
  41 0004 82B0     		sub	sp, sp, #8
  42              		.cfi_def_cfa_offset 24
  43              		.loc 1 73 0
  44 0006 04AB     		add	r3, sp, #16
  45              		.loc 1 74 0
  46 0008 1A46     		mov	r2, r3
  47 000a 0549     		ldr	r1, .L4
  48 000c 0548     		ldr	r0, .L4+4
  49              	.LVL1:
  50              		.loc 1 73 0
  51 000e 0193     		str	r3, [sp, #4]
  52              		.loc 1 74 0
  53 0010 FFF7FEFF 		bl	chvprintf
  54              	.LVL2:
  55              		.loc 1 78 0
  56 0014 02B0     		add	sp, sp, #8
  57              		.cfi_def_cfa_offset 16
ARM GAS  C:\Users\Ben\AppData\Local\Temp\ccnrYrBt.s 			page 2


  58              		@ sp needed
  59 0016 5DF804EB 		ldr	lr, [sp], #4
  60              		.cfi_restore 14
  61              		.cfi_def_cfa_offset 12
  62 001a 03B0     		add	sp, sp, #12
  63              		.cfi_restore 3
  64              		.cfi_restore 2
  65              		.cfi_restore 1
  66              		.cfi_def_cfa_offset 0
  67 001c 7047     		bx	lr
  68              	.L5:
  69 001e 00BF     		.align	2
  70              	.L4:
  71 0020 00000000 		.word	.LC0
  72 0024 00000000 		.word	SD3
  73              		.cfi_endproc
  74              	.LFE264:
  75              		.size	chprintf.constprop.0, .-chprintf.constprop.0
  76              		.section	.text.panic_handler,"ax",%progbits
  77              		.align	1
  78              		.p2align 4,,15
  79              		.global	panic_handler
  80              		.syntax unified
  81              		.thumb
  82              		.thumb_func
  83              		.fpu fpv4-sp-d16
  84              		.type	panic_handler, %function
  85              	panic_handler:
  86              	.LFB257:
  87              		.file 2 "main.c"
  88              		.loc 2 17 0
  89              		.cfi_startproc
  90              		@ Volatile: function does not return.
  91              		@ args = 0, pretend = 0, frame = 0
  92              		@ frame_needed = 0, uses_anonymous_args = 0
  93              		@ link register save eliminated.
  94              	.LVL3:
  95              		.loc 2 34 0
  96 0000 024B     		ldr	r3, .L8
  97 0002 4FF48042 		mov	r2, #16384
  98 0006 5A83     		strh	r2, [r3, #26]	@ movhi
  99              	.L7:
 100 0008 FEE7     		b	.L7
 101              	.L9:
 102 000a 00BF     		.align	2
 103              	.L8:
 104 000c 000C0240 		.word	1073875968
 105              		.cfi_endproc
 106              	.LFE257:
 107              		.size	panic_handler, .-panic_handler
 108              		.global	__aeabi_f2d
 109              		.global	__aeabi_dadd
 110              		.global	__aeabi_dcmpgt
 111              		.global	__aeabi_dcmplt
 112              		.section	.text.show_gravity,"ax",%progbits
 113              		.align	1
 114              		.p2align 4,,15
ARM GAS  C:\Users\Ben\AppData\Local\Temp\ccnrYrBt.s 			page 3


 115              		.global	show_gravity
 116              		.syntax unified
 117              		.thumb
 118              		.thumb_func
 119              		.fpu fpv4-sp-d16
 120              		.type	show_gravity, %function
 121              	show_gravity:
 122              	.LFB262:
 123              		.loc 2 119 0
 124              		.cfi_startproc
 125              		@ args = 0, pretend = 0, frame = 8
 126              		@ frame_needed = 0, uses_anonymous_args = 0
 127              	.LVL4:
 128 0000 2DE9F041 		push	{r4, r5, r6, r7, r8, lr}
 129              		.cfi_def_cfa_offset 24
 130              		.cfi_offset 4, -24
 131              		.cfi_offset 5, -20
 132              		.cfi_offset 6, -16
 133              		.cfi_offset 7, -12
 134              		.cfi_offset 8, -8
 135              		.cfi_offset 14, -4
 136 0004 2DED068B 		vpush.64	{d8, d9, d10}
 137              		.cfi_def_cfa_offset 48
 138              		.cfi_offset 80, -48
 139              		.cfi_offset 81, -44
 140              		.cfi_offset 82, -40
 141              		.cfi_offset 83, -36
 142              		.cfi_offset 84, -32
 143              		.cfi_offset 85, -28
 144 0008 82B0     		sub	sp, sp, #8
 145              		.cfi_def_cfa_offset 56
 146              		.loc 2 123 0
 147 000a 0026     		movs	r6, #0
 148              		.loc 2 119 0
 149 000c 0446     		mov	r4, r0
 150              		.loc 2 123 0
 151 000e ADF80660 		strh	r6, [sp, #6]	@ movhi
 152              	.LVL5:
 153              	.LBB31:
 154              	.LBB32:
 155              	.LBB33:
 156              	.LBB34:
 157              	.LBB35:
 158              		.file 3 "../../lib/ChibiOS/os/ext/CMSIS/include/core_cmFunc.h"
 159              		.loc 3 546 0
 160 0012 4FF02008 		mov	r8, #32
 161              		.syntax unified
 162              	@ 546 "../../lib/ChibiOS/os/ext/CMSIS/include/core_cmFunc.h" 1
 163 0016 88F31188 		MSR basepri, r8
 164              	@ 0 "" 2
 165              	.LVL6:
 166              		.thumb
 167              		.syntax unified
 168              	.LBE35:
 169              	.LBE34:
 170              	.LBE33:
 171              		.file 4 "../../lib/ChibiOS/os/rt/include/chsys.h"
ARM GAS  C:\Users\Ben\AppData\Local\Temp\ccnrYrBt.s 			page 4


 172              		.loc 4 349 0
 173 001a FFF7FEFF 		bl	_stats_start_measure_crit_thd
 174              	.LVL7:
 175              		.loc 4 350 0
 176 001e FFF7FEFF 		bl	_dbg_check_lock
 177              	.LVL8:
 178              	.LBE32:
 179              	.LBE31:
 180              		.loc 2 135 0
 181 0022 94ED009A 		vldr.32	s18, [r4]
 182 0026 D4ED019A 		vldr.32	s19, [r4, #4]
 183              		.loc 2 132 0
 184 002a 574B     		ldr	r3, .L43
 185              		.loc 2 136 0
 186 002c 94ED02AA 		vldr.32	s20, [r4, #8]
 187              		.loc 2 132 0
 188 0030 DD68     		ldr	r5, [r3, #12]
 189              		.loc 2 135 0
 190 0032 B0EEC98A 		vabs.f32	s16, s18
 191 0036 F0EEE98A 		vabs.f32	s17, s19
 192 003a B4EEE88A 		vcmpe.f32	s16, s17
 193              		.loc 2 136 0
 194 003e F0EECA7A 		vabs.f32	s15, s20
 195              		.loc 2 135 0
 196 0042 F1EE10FA 		vmrs	APSR_nzcv, FPSCR
 197              		.loc 2 132 0
 198 0046 6E62     		str	r6, [r5, #36]
 199              		.loc 2 136 0
 200 0048 17EE900A 		vmov	r0, s15
 201              		.loc 2 135 0
 202 004c 40DD     		ble	.L37
 203              		.loc 2 136 0 discriminator 1
 204 004e FFF7FEFF 		bl	__aeabi_f2d
 205              	.LVL9:
 206 0052 0022     		movs	r2, #0
 207 0054 4D4B     		ldr	r3, .L43+4
 208 0056 FFF7FEFF 		bl	__aeabi_dadd
 209              	.LVL10:
 210 005a 0646     		mov	r6, r0
 211 005c 0F46     		mov	r7, r1
 212 005e 18EE100A 		vmov	r0, s16
 213 0062 FFF7FEFF 		bl	__aeabi_f2d
 214              	.LVL11:
 215              		.loc 2 135 0 discriminator 1
 216 0066 3246     		mov	r2, r6
 217 0068 3B46     		mov	r3, r7
 218 006a FFF7FEFF 		bl	__aeabi_dcmpgt
 219              	.LVL12:
 220 006e 0028     		cmp	r0, #0
 221 0070 36D0     		beq	.L13
 222              		.loc 2 138 0
 223 0072 474B     		ldr	r3, .L43+8
 224              		.loc 2 140 0
 225 0074 474A     		ldr	r2, .L43+12
 226              		.loc 2 138 0
 227 0076 A3F81880 		strh	r8, [r3, #24]	@ movhi
 228              		.loc 2 141 0
ARM GAS  C:\Users\Ben\AppData\Local\Temp\ccnrYrBt.s 			page 5


 229 007a B5EEC09A 		vcmpe.f32	s18, #0
 230              		.loc 2 140 0
 231 007e 0421     		movs	r1, #4
 232              		.loc 2 141 0
 233 0080 F1EE10FA 		vmrs	APSR_nzcv, FPSCR
 234              		.loc 2 139 0
 235 0084 4FF48060 		mov	r0, #1024
 236 0088 1883     		strh	r0, [r3, #24]	@ movhi
 237              		.loc 2 140 0
 238 008a 1183     		strh	r1, [r2, #24]	@ movhi
 239              		.loc 2 142 0
 240 008c C7BF     		ittee	gt
 241 008e 4021     		movgt	r1, #64
 242              		.loc 2 143 0
 243 0090 4FF40062 		movgt	r2, #2048
 244              		.loc 2 145 0
 245 0094 4FF40061 		movle	r1, #2048
 246              		.loc 2 146 0
 247 0098 4022     		movle	r2, #64
 248              		.loc 2 145 0
 249 009a 1983     		strh	r1, [r3, #24]	@ movhi
 250              		.loc 2 146 0
 251 009c 5A83     		strh	r2, [r3, #26]	@ movhi
 252              	.LVL13:
 253              	.L17:
 254              		.loc 2 182 0
 255 009e 6B6A     		ldr	r3, [r5, #36]
 256 00a0 9BB2     		uxth	r3, r3
 257 00a2 ADF80630 		strh	r3, [sp, #6]	@ movhi
 258              	.LBB36:
 259              	.LBB37:
 260              		.loc 4 360 0
 261 00a6 FFF7FEFF 		bl	_dbg_check_unlock
 262              	.LVL14:
 263              		.loc 4 361 0
 264 00aa FFF7FEFF 		bl	_stats_stop_measure_crit_thd
 265              	.LVL15:
 266              		.loc 4 367 0
 267 00ae 3A4B     		ldr	r3, .L43+16
 268 00b0 1A68     		ldr	r2, [r3]
 269 00b2 9A42     		cmp	r2, r3
 270 00b4 04D0     		beq	.L27
 271 00b6 9969     		ldr	r1, [r3, #24]
 272 00b8 9368     		ldr	r3, [r2, #8]
 273 00ba 8A68     		ldr	r2, [r1, #8]
 274 00bc 9A42     		cmp	r2, r3
 275 00be 5FD3     		bcc	.L42
 276              	.L27:
 277              	.LVL16:
 278              	.LBB38:
 279              	.LBB39:
 280              	.LBB40:
 281              		.loc 3 546 0
 282 00c0 0023     		movs	r3, #0
 283              		.syntax unified
 284              	@ 546 "../../lib/ChibiOS/os/ext/CMSIS/include/core_cmFunc.h" 1
 285 00c2 83F31188 		MSR basepri, r3
ARM GAS  C:\Users\Ben\AppData\Local\Temp\ccnrYrBt.s 			page 6


 286              	@ 0 "" 2
 287              	.LVL17:
 288              		.thumb
 289              		.syntax unified
 290              	.LBE40:
 291              	.LBE39:
 292              	.LBE38:
 293              	.LBE37:
 294              	.LBE36:
 295              		.loc 2 184 0
 296 00c6 02B0     		add	sp, sp, #8
 297              		.cfi_remember_state
 298              		.cfi_def_cfa_offset 48
 299              		@ sp needed
 300 00c8 BDEC068B 		vldm	sp!, {d8-d10}
 301              		.cfi_restore 84
 302              		.cfi_restore 85
 303              		.cfi_restore 82
 304              		.cfi_restore 83
 305              		.cfi_restore 80
 306              		.cfi_restore 81
 307              		.cfi_def_cfa_offset 24
 308 00cc BDE8F081 		pop	{r4, r5, r6, r7, r8, pc}
 309              	.LVL18:
 310              	.L37:
 311              		.cfi_restore_state
 312 00d0 FFF7FEFF 		bl	__aeabi_f2d
 313              	.LVL19:
 314 00d4 0022     		movs	r2, #0
 315 00d6 2D4B     		ldr	r3, .L43+4
 316 00d8 FFF7FEFF 		bl	__aeabi_dadd
 317              	.LVL20:
 318 00dc 0646     		mov	r6, r0
 319 00de 0F46     		mov	r7, r1
 320              	.L13:
 321              		.loc 2 148 0
 322 00e0 B4EEE88A 		vcmpe.f32	s16, s17
 323 00e4 F1EE10FA 		vmrs	APSR_nzcv, FPSCR
 324 00e8 20D5     		bpl	.L18
 325              		.loc 2 149 0 discriminator 1
 326 00ea 18EE900A 		vmov	r0, s17
 327 00ee FFF7FEFF 		bl	__aeabi_f2d
 328              	.LVL21:
 329              		.loc 2 148 0 discriminator 1
 330 00f2 3246     		mov	r2, r6
 331 00f4 3B46     		mov	r3, r7
 332 00f6 FFF7FEFF 		bl	__aeabi_dcmpgt
 333              	.LVL22:
 334 00fa B8B1     		cbz	r0, .L18
 335              		.loc 2 151 0
 336 00fc 244B     		ldr	r3, .L43+8
 337              		.loc 2 153 0
 338 00fe 254A     		ldr	r2, .L43+12
 339              		.loc 2 154 0
 340 0100 F5EEC09A 		vcmpe.f32	s19, #0
 341              		.loc 2 153 0
 342 0104 0421     		movs	r1, #4
ARM GAS  C:\Users\Ben\AppData\Local\Temp\ccnrYrBt.s 			page 7


 343              		.loc 2 154 0
 344 0106 F1EE10FA 		vmrs	APSR_nzcv, FPSCR
 345              		.loc 2 151 0
 346 010a 4FF04004 		mov	r4, #64
 347              	.LVL23:
 348              		.loc 2 152 0
 349 010e 4FF40060 		mov	r0, #2048
 350              		.loc 2 151 0
 351 0112 1C83     		strh	r4, [r3, #24]	@ movhi
 352              		.loc 2 152 0
 353 0114 1883     		strh	r0, [r3, #24]	@ movhi
 354              		.loc 2 153 0
 355 0116 1183     		strh	r1, [r2, #24]	@ movhi
 356              		.loc 2 155 0
 357 0118 C7BF     		ittee	gt
 358 011a 2021     		movgt	r1, #32
 359              		.loc 2 156 0
 360 011c 4FF48062 		movgt	r2, #1024
 361              		.loc 2 158 0
 362 0120 4FF48061 		movle	r1, #1024
 363              		.loc 2 159 0
 364 0124 2022     		movle	r2, #32
 365              		.loc 2 158 0
 366 0126 1983     		strh	r1, [r3, #24]	@ movhi
 367              		.loc 2 159 0
 368 0128 5A83     		strh	r2, [r3, #26]	@ movhi
 369 012a B8E7     		b	.L17
 370              	.LVL24:
 371              	.L18:
 372              		.loc 2 161 0
 373 012c 18EE100A 		vmov	r0, s16
 374 0130 FFF7FEFF 		bl	__aeabi_f2d
 375              	.LVL25:
 376 0134 3246     		mov	r2, r6
 377 0136 3B46     		mov	r3, r7
 378 0138 FFF7FEFF 		bl	__aeabi_dcmplt
 379              	.LVL26:
 380 013c 0028     		cmp	r0, #0
 381 013e AED0     		beq	.L17
 382              		.loc 2 162 0 discriminator 1
 383 0140 18EE900A 		vmov	r0, s17
 384 0144 FFF7FEFF 		bl	__aeabi_f2d
 385              	.LVL27:
 386              		.loc 2 161 0 discriminator 1
 387 0148 3246     		mov	r2, r6
 388 014a 3B46     		mov	r3, r7
 389 014c FFF7FEFF 		bl	__aeabi_dcmplt
 390              	.LVL28:
 391 0150 0028     		cmp	r0, #0
 392 0152 A4D0     		beq	.L17
 393              		.loc 2 164 0
 394 0154 0E4B     		ldr	r3, .L43+8
 395              		.loc 2 168 0
 396 0156 0F4A     		ldr	r2, .L43+12
 397              		.loc 2 164 0
 398 0158 2020     		movs	r0, #32
 399              		.loc 2 165 0
ARM GAS  C:\Users\Ben\AppData\Local\Temp\ccnrYrBt.s 			page 8


 400 015a 4021     		movs	r1, #64
 401              		.loc 2 163 0
 402 015c B5EEC0AA 		vcmpe.f32	s20, #0
 403              		.loc 2 164 0
 404 0160 1883     		strh	r0, [r3, #24]	@ movhi
 405              		.loc 2 163 0
 406 0162 F1EE10FA 		vmrs	APSR_nzcv, FPSCR
 407              		.loc 2 165 0
 408 0166 1983     		strh	r1, [r3, #24]	@ movhi
 409              		.loc 2 166 0
 410 0168 4FF48064 		mov	r4, #1024
 411              	.LVL29:
 412              		.loc 2 168 0
 413 016c 4FF00401 		mov	r1, #4
 414              		.loc 2 167 0
 415 0170 4FF40060 		mov	r0, #2048
 416              		.loc 2 166 0
 417 0174 1C83     		strh	r4, [r3, #24]	@ movhi
 418              		.loc 2 167 0
 419 0176 1883     		strh	r0, [r3, #24]	@ movhi
 420              		.loc 2 168 0
 421 0178 CCBF     		ite	gt
 422 017a 5183     		strhgt	r1, [r2, #26]	@ movhi
 423              		.loc 2 174 0
 424 017c 1183     		strhle	r1, [r2, #24]	@ movhi
 425 017e 8EE7     		b	.L17
 426              	.L42:
 427              	.LBB42:
 428              	.LBB41:
 429              		.loc 4 367 0
 430 0180 0648     		ldr	r0, .L43+20
 431 0182 FFF7FEFF 		bl	chSysHalt
 432              	.LVL30:
 433 0186 9BE7     		b	.L27
 434              	.L44:
 435              		.align	2
 436              	.L43:
 437 0188 00000000 		.word	GPTD11
 438 018c 0000E03F 		.word	1071644672
 439 0190 000C0240 		.word	1073875968
 440 0194 00040240 		.word	1073873920
 441 0198 00000000 		.word	ch
 442 019c 00000000 		.word	.LANCHOR0
 443              	.LBE41:
 444              	.LBE42:
 445              		.cfi_endproc
 446              	.LFE262:
 447              		.size	show_gravity, .-show_gravity
 448              		.section	.text.startup.main,"ax",%progbits
 449              		.align	1
 450              		.p2align 4,,15
 451              		.global	main
 452              		.syntax unified
 453              		.thumb
 454              		.thumb_func
 455              		.fpu fpv4-sp-d16
 456              		.type	main, %function
ARM GAS  C:\Users\Ben\AppData\Local\Temp\ccnrYrBt.s 			page 9


 457              	main:
 458              	.LFB263:
 459              		.loc 2 187 0
 460              		.cfi_startproc
 461              		@ args = 0, pretend = 0, frame = 80
 462              		@ frame_needed = 0, uses_anonymous_args = 0
 463 0000 2DE9F041 		push	{r4, r5, r6, r7, r8, lr}
 464              		.cfi_def_cfa_offset 24
 465              		.cfi_offset 4, -24
 466              		.cfi_offset 5, -20
 467              		.cfi_offset 6, -16
 468              		.cfi_offset 7, -12
 469              		.cfi_offset 8, -8
 470              		.cfi_offset 14, -4
 471 0004 A0B0     		sub	sp, sp, #128
 472              		.cfi_def_cfa_offset 152
 473              		.loc 2 189 0
 474 0006 FFF7FEFF 		bl	halInit
 475              	.LVL31:
 476              		.loc 2 190 0
 477 000a FFF7FEFF 		bl	chSysInit
 478              	.LVL32:
 479              	.LBB47:
 480              	.LBB48:
 481              		.loc 2 49 0
 482 000e 2C48     		ldr	r0, .L48
 483 0010 2C49     		ldr	r1, .L48+4
 484              	.LBE48:
 485              	.LBE47:
 486              		.loc 2 240 0
 487 0012 DFF8CC80 		ldr	r8, .L48+32
 488 0016 0746     		mov	r7, r0
 489              	.LBB50:
 490              	.LBB49:
 491              		.loc 2 49 0
 492 0018 FFF7FEFF 		bl	sdStart
 493              	.LVL33:
 494              	.LBE49:
 495              	.LBE50:
 496              	.LBB51:
 497              	.LBB52:
 498              		.loc 2 63 0
 499 001c 2A49     		ldr	r1, .L48+8
 500 001e 2B48     		ldr	r0, .L48+12
 501 0020 FFF7FEFF 		bl	gptStart
 502              	.LVL34:
 503              		.loc 2 65 0
 504 0024 4FF6FF71 		movw	r1, #65535
 505 0028 2848     		ldr	r0, .L48+12
 506 002a FFF7FEFF 		bl	gptStartContinuous
 507              	.LVL35:
 508              	.LBE52:
 509              	.LBE51:
 510              		.loc 2 193 0
 511 002e FFF7FEFF 		bl	i2c_start
 512              	.LVL36:
 513              		.loc 2 194 0
ARM GAS  C:\Users\Ben\AppData\Local\Temp\ccnrYrBt.s 			page 10


 514 0032 FFF7FEFF 		bl	imu_start
 515              	.LVL37:
 516              		.loc 2 197 0
 517 0036 264A     		ldr	r2, .L48+16
 518 0038 2649     		ldr	r1, .L48+20
 519 003a 2748     		ldr	r0, .L48+24
 520 003c FFF7FEFF 		bl	messagebus_init
 521              	.LVL38:
 522              		.loc 2 209 0
 523 0040 2649     		ldr	r1, .L48+28
 524 0042 2548     		ldr	r0, .L48+24
 525 0044 FFF7FEFF 		bl	messagebus_find_topic_blocking
 526              	.LVL39:
 527 0048 0646     		mov	r6, r0
 528              	.LVL40:
 529              		.loc 2 213 0
 530 004a 4FF4FA60 		mov	r0, #2000
 531              	.LVL41:
 532 004e FFF7FEFF 		bl	chThdSleep
 533              	.LVL42:
 534              		.loc 2 214 0
 535 0052 3046     		mov	r0, r6
 536 0054 C821     		movs	r1, #200
 537 0056 FFF7FEFF 		bl	imu_compute_offset
 538              	.LVL43:
 539              	.L46:
 540              		.loc 2 218 0 discriminator 1
 541 005a 5022     		movs	r2, #80
 542 005c 0CA9     		add	r1, sp, #48
 543 005e 3046     		mov	r0, r6
 544 0060 FFF7FEFF 		bl	messagebus_topic_wait
 545              	.LVL44:
 546              		.loc 2 240 0 discriminator 1
 547 0064 0C98     		ldr	r0, [sp, #48]	@ float
 548 0066 FFF7FEFF 		bl	__aeabi_f2d
 549              	.LVL45:
 550 006a 9DF87C30 		ldrb	r3, [sp, #124]	@ zero_extendqisi2
 551 006e 0A93     		str	r3, [sp, #40]
 552 0070 0446     		mov	r4, r0
 553 0072 1198     		ldr	r0, [sp, #68]	@ float
 554 0074 0D46     		mov	r5, r1
 555 0076 FFF7FEFF 		bl	__aeabi_f2d
 556              	.LVL46:
 557 007a CDE90801 		strd	r0, [sp, #32]
 558 007e 1098     		ldr	r0, [sp, #64]	@ float
 559 0080 FFF7FEFF 		bl	__aeabi_f2d
 560              	.LVL47:
 561 0084 CDE90601 		strd	r0, [sp, #24]
 562 0088 0F98     		ldr	r0, [sp, #60]	@ float
 563 008a FFF7FEFF 		bl	__aeabi_f2d
 564              	.LVL48:
 565 008e CDE90401 		strd	r0, [sp, #16]
 566 0092 0E98     		ldr	r0, [sp, #56]	@ float
 567 0094 FFF7FEFF 		bl	__aeabi_f2d
 568              	.LVL49:
 569 0098 CDE90201 		strd	r0, [sp, #8]
 570 009c 0D98     		ldr	r0, [sp, #52]	@ float
ARM GAS  C:\Users\Ben\AppData\Local\Temp\ccnrYrBt.s 			page 11


 571 009e FFF7FEFF 		bl	__aeabi_f2d
 572              	.LVL50:
 573 00a2 2246     		mov	r2, r4
 574 00a4 CDE90001 		strd	r0, [sp]
 575 00a8 2B46     		mov	r3, r5
 576 00aa 4146     		mov	r1, r8
 577 00ac 3846     		mov	r0, r7
 578 00ae FFF7FEFF 		bl	chprintf.constprop.0
 579              	.LVL51:
 580              		.loc 2 245 0 discriminator 1
 581 00b2 0CA8     		add	r0, sp, #48
 582 00b4 FFF7FEFF 		bl	show_gravity
 583              	.LVL52:
 584              		.loc 2 246 0 discriminator 1
 585 00b8 6420     		movs	r0, #100
 586 00ba FFF7FEFF 		bl	chThdSleep
 587              	.LVL53:
 588 00be CCE7     		b	.L46
 589              	.L49:
 590              		.align	2
 591              	.L48:
 592 00c0 00000000 		.word	SD3
 593 00c4 00000000 		.word	.LANCHOR1
 594 00c8 00000000 		.word	.LANCHOR2
 595 00cc 00000000 		.word	GPTD11
 596 00d0 00000000 		.word	.LANCHOR3
 597 00d4 00000000 		.word	.LANCHOR4
 598 00d8 00000000 		.word	.LANCHOR5
 599 00dc 00000000 		.word	.LC1
 600 00e0 00000000 		.word	.LC0
 601              		.cfi_endproc
 602              	.LFE263:
 603              		.size	main, .-main
 604              		.global	bus_condvar
 605              		.global	bus_lock
 606              		.global	bus
 607              		.section	.bss.bus,"aw",%nobits
 608              		.align	2
 609              		.set	.LANCHOR5,. + 0
 610              		.type	bus, %object
 611              		.size	bus, 12
 612              	bus:
 613 0000 00000000 		.space	12
 613      00000000 
 613      00000000 
 614              		.section	.data.bus_condvar,"aw",%progbits
 615              		.align	2
 616              		.set	.LANCHOR3,. + 0
 617              		.type	bus_condvar, %object
 618              		.size	bus_condvar, 8
 619              	bus_condvar:
 620 0000 00000000 		.word	bus_condvar
 621 0004 00000000 		.word	bus_condvar
 622              		.section	.data.bus_lock,"aw",%progbits
 623              		.align	2
 624              		.set	.LANCHOR4,. + 0
 625              		.type	bus_lock, %object
ARM GAS  C:\Users\Ben\AppData\Local\Temp\ccnrYrBt.s 			page 12


 626              		.size	bus_lock, 20
 627              	bus_lock:
 628 0000 00000000 		.word	bus_lock
 629 0004 00000000 		.word	bus_lock
 630 0008 00000000 		.word	0
 631 000c 00000000 		.word	0
 632 0010 00000000 		.word	0
 633              		.section	.data.ser_cfg.10164,"aw",%progbits
 634              		.align	2
 635              		.set	.LANCHOR1,. + 0
 636              		.type	ser_cfg.10164, %object
 637              		.size	ser_cfg.10164, 12
 638              	ser_cfg.10164:
 639 0000 00C20100 		.word	115200
 640 0004 0000     		.short	0
 641 0006 0000     		.short	0
 642 0008 0000     		.short	0
 643 000a 0000     		.space	2
 644              		.section	.rodata.__func__.7153,"a",%progbits
 645              		.align	2
 646              		.set	.LANCHOR0,. + 0
 647              		.type	__func__.7153, %object
 648              		.size	__func__.7153, 12
 649              	__func__.7153:
 650 0000 63685379 		.ascii	"chSysUnlock\000"
 650      73556E6C 
 650      6F636B00 
 651              		.section	.rodata.chprintf.constprop.0.str1.4,"aMS",%progbits,1
 652              		.align	2
 653              	.LC0:
 654 0000 52656164 		.ascii	"Readable\015\012%Ax=%.2f Ay=%.2f Az=%.2f Gx=%.2f Gy"
 654      61626C65 
 654      0D0A2541 
 654      783D252E 
 654      32662041 
 655 002d 3D252E32 		.ascii	"=%.2f Gz=%.2f (%x)\015\012\012\000"
 655      6620477A 
 655      3D252E32 
 655      66202825 
 655      78290D0A 
 656              		.section	.rodata.gpt11cfg.10168,"a",%progbits
 657              		.align	2
 658              		.set	.LANCHOR2,. + 0
 659              		.type	gpt11cfg.10168, %object
 660              		.size	gpt11cfg.10168, 16
 661              	gpt11cfg.10168:
 662 0000 40420F00 		.word	1000000
 663 0004 00000000 		.word	0
 664 0008 00000000 		.word	0
 665 000c 00000000 		.word	0
 666              		.section	.rodata.main.str1.4,"aMS",%progbits,1
 667              		.align	2
 668              	.LC1:
 669 0000 2F696D75 		.ascii	"/imu\000"
 669      00
 670              		.text
 671              	.Letext0:
ARM GAS  C:\Users\Ben\AppData\Local\Temp\ccnrYrBt.s 			page 13


 672              		.file 5 "c:\\users\\ben\\documents\\eclipse_e-puck2_win32_29_jan_2020\\eclipse_e-puck2\\tools\\gcc
 673              		.file 6 "c:\\users\\ben\\documents\\eclipse_e-puck2_win32_29_jan_2020\\eclipse_e-puck2\\tools\\gcc
 674              		.file 7 "c:\\users\\ben\\documents\\eclipse_e-puck2_win32_29_jan_2020\\eclipse_e-puck2\\tools\\gcc
 675              		.file 8 "../../lib/ChibiOS/os/rt/ports/ARMCMx/compilers/GCC/chtypes.h"
 676              		.file 9 "../../lib/ChibiOS/os/rt/include/chsystypes.h"
 677              		.file 10 "../../lib/ChibiOS/os/rt/include/chschd.h"
 678              		.file 11 "../../lib/ChibiOS/os/ext/CMSIS/include/core_cm4.h"
 679              		.file 12 "../../lib/ChibiOS/os/ext/CMSIS/ST/system_stm32f4xx.h"
 680              		.file 13 "../../lib/ChibiOS/os/ext/CMSIS/ST/stm32f407xx.h"
 681              		.file 14 "../../lib/ChibiOS/os/rt/ports/ARMCMx/chcore.h"
 682              		.file 15 "../../lib/ChibiOS/os/rt/ports/ARMCMx/chcore_v7m.h"
 683              		.file 16 "../../lib/ChibiOS/os/rt/include/chdebug.h"
 684              		.file 17 "../../lib/ChibiOS/os/rt/include/chtm.h"
 685              		.file 18 "../../lib/ChibiOS/os/rt/include/chstats.h"
 686              		.file 19 "../../lib/ChibiOS/os/rt/include/chsem.h"
 687              		.file 20 "../../lib/ChibiOS/os/rt/include/chmtx.h"
 688              		.file 21 "../../lib/ChibiOS/os/rt/include/chregistry.h"
 689              		.file 22 "../../lib/ChibiOS/os/rt/include/chcond.h"
 690              		.file 23 "../../lib/ChibiOS/os/rt/include/chevents.h"
 691              		.file 24 "../../lib/ChibiOS/os/rt/include/chqueues.h"
 692              		.file 25 "../../lib/ChibiOS/os/rt/include/chstreams.h"
 693              		.file 26 "../../lib/ChibiOS/os/hal/ports/STM32/STM32F4xx/stm32_dma.h"
 694              		.file 27 "../../lib/ChibiOS/os/hal/ports/STM32/LLD/GPIOv2/pal_lld.h"
 695              		.file 28 "../../lib/ChibiOS/os/hal/include/gpt.h"
 696              		.file 29 "../../lib/ChibiOS/os/hal/ports/STM32/LLD/TIMv1/gpt_lld.h"
 697              		.file 30 "../../lib/ChibiOS/os/hal/ports/STM32/LLD/TIMv1/stm32_tim.h"
 698              		.file 31 "../../lib/ChibiOS/os/hal/include/i2c.h"
 699              		.file 32 "../../lib/ChibiOS/os/hal/ports/STM32/LLD/I2Cv1/i2c_lld.h"
 700              		.file 33 "../../lib/ChibiOS/os/hal/include/serial.h"
 701              		.file 34 "../../lib/ChibiOS/os/hal/ports/STM32/LLD/USARTv1/serial_lld.h"
 702              		.file 35 "../../lib/ChibiOS/os/hal/include/usb.h"
 703              		.file 36 "../../lib/ChibiOS/os/hal/ports/STM32/LLD/OTGv1/usb_lld.h"
 704              		.file 37 "../../lib/ChibiOS/os/hal/ports/STM32/LLD/OTGv1/stm32_otg.h"
 705              		.file 38 "c:\\users\\ben\\documents\\eclipse_e-puck2_win32_29_jan_2020\\eclipse_e-puck2\\tools\\gc
 706              		.file 39 "c:\\users\\ben\\documents\\eclipse_e-puck2_win32_29_jan_2020\\eclipse_e-puck2\\tools\\gc
 707              		.file 40 "c:\\users\\ben\\documents\\eclipse_e-puck2_win32_29_jan_2020\\eclipse_e-puck2\\tools\\gc
 708              		.file 41 "c:\\users\\ben\\documents\\eclipse_e-puck2_win32_29_jan_2020\\eclipse_e-puck2\\tools\\gc
 709              		.file 42 "c:\\users\\ben\\documents\\eclipse_e-puck2_win32_29_jan_2020\\eclipse_e-puck2\\tools\\gc
 710              		.file 43 "<built-in>"
 711              		.file 44 "c:\\users\\ben\\documents\\eclipse_e-puck2_win32_29_jan_2020\\eclipse_e-puck2\\tools\\gc
 712              		.file 45 "../../lib/msgbus/messagebus.h"
 713              		.file 46 "./mpu9250.h"
 714              		.file 47 "./imu.h"
 715              		.file 48 "../../lib/ChibiOS/os/hal/include/hal.h"
 716              		.file 49 "./i2c_bus.h"
 717              		.file 50 "../../lib/ChibiOS/os/rt/include/chthreads.h"