ARM GAS  C:\Users\Ben\AppData\Local\Temp\ccFiRYUw.s 			page 1


   1              		.cpu cortex-m4
   2              		.eabi_attribute 27, 1
   3              		.eabi_attribute 28, 1
   4              		.eabi_attribute 20, 1
   5              		.eabi_attribute 21, 1
   6              		.eabi_attribute 23, 3
   7              		.eabi_attribute 24, 1
   8              		.eabi_attribute 25, 1
   9              		.eabi_attribute 26, 1
  10              		.eabi_attribute 30, 2
  11              		.eabi_attribute 34, 1
  12              		.eabi_attribute 18, 4
  13              		.file	"main.c"
  14              		.text
  15              	.Ltext0:
  16              		.cfi_sections	.debug_frame
  17              		.section	.text.chprintf.constprop.0,"ax",%progbits
  18              		.align	1
  19              		.p2align 4,,15
  20              		.syntax unified
  21              		.thumb
  22              		.thumb_func
  23              		.fpu fpv4-sp-d16
  24              		.type	chprintf.constprop.0, %function
  25              	chprintf.constprop.0:
  26              	.LFB264:
  27              		.file 1 "../../lib/ChibiOS/os/hal/lib/streams/chprintf.h"
  28              		.loc 1 69 0
  29              		.cfi_startproc
  30              		@ args = 4, pretend = 12, frame = 8
  31              		@ frame_needed = 0, uses_anonymous_args = 1
  32              	.LVL0:
  33 0000 0EB4     		push	{r1, r2, r3}
  34              		.cfi_def_cfa_offset 12
  35              		.cfi_offset 1, -12
  36              		.cfi_offset 2, -8
  37              		.cfi_offset 3, -4
  38 0002 00B5     		push	{lr}
  39              		.cfi_def_cfa_offset 16
  40              		.cfi_offset 14, -16
  41 0004 82B0     		sub	sp, sp, #8
  42              		.cfi_def_cfa_offset 24
  43              		.loc 1 73 0
  44 0006 04AB     		add	r3, sp, #16
  45              		.loc 1 74 0
  46 0008 1A46     		mov	r2, r3
  47 000a 0549     		ldr	r1, .L4
  48 000c 0548     		ldr	r0, .L4+4
  49              	.LVL1:
  50              		.loc 1 73 0
  51 000e 0193     		str	r3, [sp, #4]
  52              		.loc 1 74 0
  53 0010 FFF7FEFF 		bl	chvprintf
  54              	.LVL2:
  55              		.loc 1 78 0
  56 0014 02B0     		add	sp, sp, #8
  57              		.cfi_def_cfa_offset 16
ARM GAS  C:\Users\Ben\AppData\Local\Temp\ccFiRYUw.s 			page 2


  58              		@ sp needed
  59 0016 5DF804EB 		ldr	lr, [sp], #4
  60              		.cfi_restore 14
  61              		.cfi_def_cfa_offset 12
  62 001a 03B0     		add	sp, sp, #12
  63              		.cfi_restore 3
  64              		.cfi_restore 2
  65              		.cfi_restore 1
  66              		.cfi_def_cfa_offset 0
  67 001c 7047     		bx	lr
  68              	.L5:
  69 001e 00BF     		.align	2
  70              	.L4:
  71 0020 00000000 		.word	.LC0
  72 0024 00000000 		.word	SD3
  73              		.cfi_endproc
  74              	.LFE264:
  75              		.size	chprintf.constprop.0, .-chprintf.constprop.0
  76              		.section	.text.panic_handler,"ax",%progbits
  77              		.align	1
  78              		.p2align 4,,15
  79              		.global	panic_handler
  80              		.syntax unified
  81              		.thumb
  82              		.thumb_func
  83              		.fpu fpv4-sp-d16
  84              		.type	panic_handler, %function
  85              	panic_handler:
  86              	.LFB257:
  87              		.file 2 "main.c"
  88              		.loc 2 19 0
  89              		.cfi_startproc
  90              		@ Volatile: function does not return.
  91              		@ args = 0, pretend = 0, frame = 0
  92              		@ frame_needed = 0, uses_anonymous_args = 0
  93              		@ link register save eliminated.
  94              	.LVL3:
  95              		.loc 2 36 0
  96 0000 024B     		ldr	r3, .L8
  97 0002 4FF48042 		mov	r2, #16384
  98 0006 5A83     		strh	r2, [r3, #26]	@ movhi
  99              	.L7:
 100 0008 FEE7     		b	.L7
 101              	.L9:
 102 000a 00BF     		.align	2
 103              	.L8:
 104 000c 000C0240 		.word	1073875968
 105              		.cfi_endproc
 106              	.LFE257:
 107              		.size	panic_handler, .-panic_handler
 108              		.global	__aeabi_f2d
 109              		.global	__aeabi_dcmplt
 110              		.section	.text.show_gravity,"ax",%progbits
 111              		.align	1
 112              		.p2align 4,,15
 113              		.global	show_gravity
 114              		.syntax unified
ARM GAS  C:\Users\Ben\AppData\Local\Temp\ccFiRYUw.s 			page 3


 115              		.thumb
 116              		.thumb_func
 117              		.fpu fpv4-sp-d16
 118              		.type	show_gravity, %function
 119              	show_gravity:
 120              	.LFB262:
 121              		.loc 2 121 0
 122              		.cfi_startproc
 123              		@ args = 0, pretend = 0, frame = 8
 124              		@ frame_needed = 0, uses_anonymous_args = 0
 125              	.LVL4:
 126 0000 F0B5     		push	{r4, r5, r6, r7, lr}
 127              		.cfi_def_cfa_offset 20
 128              		.cfi_offset 4, -20
 129              		.cfi_offset 5, -16
 130              		.cfi_offset 6, -12
 131              		.cfi_offset 7, -8
 132              		.cfi_offset 14, -4
 133 0002 2DED028B 		vpush.64	{d8}
 134              		.cfi_def_cfa_offset 28
 135              		.cfi_offset 80, -28
 136              		.cfi_offset 81, -24
 137 0006 83B0     		sub	sp, sp, #12
 138              		.cfi_def_cfa_offset 40
 139              		.loc 2 125 0
 140 0008 0026     		movs	r6, #0
 141              		.loc 2 121 0
 142 000a 0546     		mov	r5, r0
 143              		.loc 2 125 0
 144 000c ADF80660 		strh	r6, [sp, #6]	@ movhi
 145              	.LVL5:
 146              	.LBB31:
 147              	.LBB32:
 148              	.LBB33:
 149              	.LBB34:
 150              	.LBB35:
 151              		.file 3 "../../lib/ChibiOS/os/ext/CMSIS/include/core_cmFunc.h"
 152              		.loc 3 546 0
 153 0010 2027     		movs	r7, #32
 154              		.syntax unified
 155              	@ 546 "../../lib/ChibiOS/os/ext/CMSIS/include/core_cmFunc.h" 1
 156 0012 87F31188 		MSR basepri, r7
 157              	@ 0 "" 2
 158              	.LVL6:
 159              		.thumb
 160              		.syntax unified
 161              	.LBE35:
 162              	.LBE34:
 163              	.LBE33:
 164              		.file 4 "../../lib/ChibiOS/os/rt/include/chsys.h"
 165              		.loc 4 349 0
 166 0016 FFF7FEFF 		bl	_stats_start_measure_crit_thd
 167              	.LVL7:
 168              		.loc 4 350 0
 169 001a FFF7FEFF 		bl	_dbg_check_lock
 170              	.LVL8:
 171              	.LBE32:
ARM GAS  C:\Users\Ben\AppData\Local\Temp\ccFiRYUw.s 			page 4


 172              	.LBE31:
 173              		.loc 2 134 0
 174 001e 3E4B     		ldr	r3, .L35+8
 175              		.loc 2 136 0
 176 0020 95ED028A 		vldr.32	s16, [r5, #8]
 177              		.loc 2 134 0
 178 0024 DC68     		ldr	r4, [r3, #12]
 179              		.loc 2 136 0
 180 0026 F0EEC87A 		vabs.f32	s15, s16
 181 002a 17EE900A 		vmov	r0, s15
 182              		.loc 2 134 0
 183 002e 6662     		str	r6, [r4, #36]
 184              		.loc 2 136 0
 185 0030 FFF7FEFF 		bl	__aeabi_f2d
 186              	.LVL9:
 187 0034 36A3     		adr	r3, .L35
 188 0036 D3E90023 		ldrd	r2, [r3]
 189 003a FFF7FEFF 		bl	__aeabi_dcmplt
 190              	.LVL10:
 191 003e 10B3     		cbz	r0, .L28
 192              		.loc 2 138 0
 193 0040 95ED007A 		vldr.32	s14, [r5]
 194 0044 D5ED017A 		vldr.32	s15, [r5, #4]
 195              		.loc 2 141 0
 196 0048 344B     		ldr	r3, .L35+12
 197              		.loc 2 143 0
 198 004a 354A     		ldr	r2, .L35+16
 199              		.loc 2 138 0
 200 004c B0EEC76A 		vabs.f32	s12, s14
 201 0050 F0EEE76A 		vabs.f32	s13, s15
 202 0054 B4EEE66A 		vcmpe.f32	s12, s13
 203 0058 F1EE10FA 		vmrs	APSR_nzcv, FPSCR
 204 005c 43DD     		ble	.L29
 205              		.loc 2 144 0
 206 005e B5EEC07A 		vcmpe.f32	s14, #0
 207              		.loc 2 143 0
 208 0062 0421     		movs	r1, #4
 209              		.loc 2 144 0
 210 0064 F1EE10FA 		vmrs	APSR_nzcv, FPSCR
 211              		.loc 2 142 0
 212 0068 4FF48060 		mov	r0, #1024
 213              		.loc 2 141 0
 214 006c 1F83     		strh	r7, [r3, #24]	@ movhi
 215              		.loc 2 142 0
 216 006e 1883     		strh	r0, [r3, #24]	@ movhi
 217              		.loc 2 143 0
 218 0070 5183     		strh	r1, [r2, #26]	@ movhi
 219              		.loc 2 145 0
 220 0072 C7BF     		ittee	gt
 221 0074 4021     		movgt	r1, #64
 222              		.loc 2 146 0
 223 0076 4FF40062 		movgt	r2, #2048
 224              		.loc 2 148 0
 225 007a 4FF40061 		movle	r1, #2048
 226              		.loc 2 149 0
 227 007e 4022     		movle	r2, #64
 228              		.loc 2 148 0
ARM GAS  C:\Users\Ben\AppData\Local\Temp\ccFiRYUw.s 			page 5


 229 0080 1983     		strh	r1, [r3, #24]	@ movhi
 230              		.loc 2 149 0
 231 0082 5A83     		strh	r2, [r3, #26]	@ movhi
 232 0084 13E0     		b	.L17
 233              	.L28:
 234              		.loc 2 181 0
 235 0086 254B     		ldr	r3, .L35+12
 236              		.loc 2 185 0
 237 0088 254A     		ldr	r2, .L35+16
 238              		.loc 2 181 0
 239 008a 1F83     		strh	r7, [r3, #24]	@ movhi
 240              		.loc 2 182 0
 241 008c 4021     		movs	r1, #64
 242              		.loc 2 180 0
 243 008e B5EEC08A 		vcmpe.f32	s16, #0
 244              		.loc 2 182 0
 245 0092 1983     		strh	r1, [r3, #24]	@ movhi
 246              		.loc 2 180 0
 247 0094 F1EE10FA 		vmrs	APSR_nzcv, FPSCR
 248              		.loc 2 185 0
 249 0098 4FF00401 		mov	r1, #4
 250              		.loc 2 183 0
 251 009c 4FF48065 		mov	r5, #1024
 252              	.LVL11:
 253              		.loc 2 184 0
 254 00a0 4FF40060 		mov	r0, #2048
 255              		.loc 2 183 0
 256 00a4 1D83     		strh	r5, [r3, #24]	@ movhi
 257              		.loc 2 184 0
 258 00a6 1883     		strh	r0, [r3, #24]	@ movhi
 259              		.loc 2 185 0
 260 00a8 CCBF     		ite	gt
 261 00aa 1183     		strhgt	r1, [r2, #24]	@ movhi
 262              		.loc 2 191 0
 263 00ac 5183     		strhle	r1, [r2, #26]	@ movhi
 264              	.L17:
 265              		.loc 2 198 0
 266 00ae 636A     		ldr	r3, [r4, #36]
 267 00b0 9BB2     		uxth	r3, r3
 268 00b2 ADF80630 		strh	r3, [sp, #6]	@ movhi
 269              	.LBB36:
 270              	.LBB37:
 271              		.loc 4 360 0
 272 00b6 FFF7FEFF 		bl	_dbg_check_unlock
 273              	.LVL12:
 274              		.loc 4 361 0
 275 00ba FFF7FEFF 		bl	_stats_stop_measure_crit_thd
 276              	.LVL13:
 277              		.loc 4 367 0
 278 00be 194B     		ldr	r3, .L35+20
 279 00c0 1A68     		ldr	r2, [r3]
 280 00c2 9A42     		cmp	r2, r3
 281 00c4 04D0     		beq	.L22
 282 00c6 9969     		ldr	r1, [r3, #24]
 283 00c8 9368     		ldr	r3, [r2, #8]
 284 00ca 8A68     		ldr	r2, [r1, #8]
 285 00cc 9A42     		cmp	r2, r3
ARM GAS  C:\Users\Ben\AppData\Local\Temp\ccFiRYUw.s 			page 6


 286 00ce 06D3     		bcc	.L34
 287              	.L22:
 288              	.LVL14:
 289              	.LBB38:
 290              	.LBB39:
 291              	.LBB40:
 292              		.loc 3 546 0
 293 00d0 0023     		movs	r3, #0
 294              		.syntax unified
 295              	@ 546 "../../lib/ChibiOS/os/ext/CMSIS/include/core_cmFunc.h" 1
 296 00d2 83F31188 		MSR basepri, r3
 297              	@ 0 "" 2
 298              	.LVL15:
 299              		.thumb
 300              		.syntax unified
 301              	.LBE40:
 302              	.LBE39:
 303              	.LBE38:
 304              	.LBE37:
 305              	.LBE36:
 306              		.loc 2 200 0
 307 00d6 03B0     		add	sp, sp, #12
 308              		.cfi_remember_state
 309              		.cfi_def_cfa_offset 28
 310              		@ sp needed
 311 00d8 BDEC028B 		vldm	sp!, {d8}
 312              		.cfi_restore 80
 313              		.cfi_restore 81
 314              		.cfi_def_cfa_offset 20
 315 00dc F0BD     		pop	{r4, r5, r6, r7, pc}
 316              	.L34:
 317              		.cfi_restore_state
 318              	.LBB42:
 319              	.LBB41:
 320              		.loc 4 367 0
 321 00de 1248     		ldr	r0, .L35+24
 322 00e0 FFF7FEFF 		bl	chSysHalt
 323              	.LVL16:
 324 00e4 F4E7     		b	.L22
 325              	.LVL17:
 326              	.L29:
 327              	.LBE41:
 328              	.LBE42:
 329              		.loc 2 154 0
 330 00e6 4021     		movs	r1, #64
 331 00e8 1983     		strh	r1, [r3, #24]	@ movhi
 332              		.loc 2 155 0
 333 00ea 4FF40060 		mov	r0, #2048
 334              		.loc 2 156 0
 335 00ee 0421     		movs	r1, #4
 336              		.loc 2 157 0
 337 00f0 F5EEC07A 		vcmpe.f32	s15, #0
 338              		.loc 2 155 0
 339 00f4 1883     		strh	r0, [r3, #24]	@ movhi
 340              		.loc 2 157 0
 341 00f6 F1EE10FA 		vmrs	APSR_nzcv, FPSCR
 342              		.loc 2 156 0
ARM GAS  C:\Users\Ben\AppData\Local\Temp\ccFiRYUw.s 			page 7


 343 00fa 5183     		strh	r1, [r2, #26]	@ movhi
 344              		.loc 2 159 0
 345 00fc 4FF48062 		mov	r2, #1024
 346              		.loc 2 158 0
 347 0100 CBBF     		itete	gt
 348 0102 1F83     		strhgt	r7, [r3, #24]	@ movhi
 349              		.loc 2 161 0
 350 0104 1A83     		strhle	r2, [r3, #24]	@ movhi
 351              		.loc 2 159 0
 352 0106 5A83     		strhgt	r2, [r3, #26]	@ movhi
 353              		.loc 2 162 0
 354 0108 5F83     		strhle	r7, [r3, #26]	@ movhi
 355 010a D0E7     		b	.L17
 356              	.L36:
 357 010c AFF30080 		.align	3
 358              	.L35:
 359 0110 1D98B6E2 		.word	-491349987
 360 0114 DD4F2340 		.word	1076056029
 361 0118 00000000 		.word	GPTD11
 362 011c 000C0240 		.word	1073875968
 363 0120 00040240 		.word	1073873920
 364 0124 00000000 		.word	ch
 365 0128 00000000 		.word	.LANCHOR0
 366              		.cfi_endproc
 367              	.LFE262:
 368              		.size	show_gravity, .-show_gravity
 369              		.section	.text.startup.main,"ax",%progbits
 370              		.align	1
 371              		.p2align 4,,15
 372              		.global	main
 373              		.syntax unified
 374              		.thumb
 375              		.thumb_func
 376              		.fpu fpv4-sp-d16
 377              		.type	main, %function
 378              	main:
 379              	.LFB263:
 380              		.loc 2 203 0
 381              		.cfi_startproc
 382              		@ args = 0, pretend = 0, frame = 80
 383              		@ frame_needed = 0, uses_anonymous_args = 0
 384 0000 2DE9F041 		push	{r4, r5, r6, r7, r8, lr}
 385              		.cfi_def_cfa_offset 24
 386              		.cfi_offset 4, -24
 387              		.cfi_offset 5, -20
 388              		.cfi_offset 6, -16
 389              		.cfi_offset 7, -12
 390              		.cfi_offset 8, -8
 391              		.cfi_offset 14, -4
 392 0004 A0B0     		sub	sp, sp, #128
 393              		.cfi_def_cfa_offset 152
 394              		.loc 2 205 0
 395 0006 FFF7FEFF 		bl	halInit
 396              	.LVL18:
 397              		.loc 2 206 0
 398 000a FFF7FEFF 		bl	chSysInit
 399              	.LVL19:
ARM GAS  C:\Users\Ben\AppData\Local\Temp\ccFiRYUw.s 			page 8


 400              	.LBB47:
 401              	.LBB48:
 402              		.loc 2 51 0
 403 000e 2C48     		ldr	r0, .L40
 404 0010 2C49     		ldr	r1, .L40+4
 405              	.LBE48:
 406              	.LBE47:
 407              		.loc 2 256 0
 408 0012 DFF8CC80 		ldr	r8, .L40+32
 409 0016 0746     		mov	r7, r0
 410              	.LBB50:
 411              	.LBB49:
 412              		.loc 2 51 0
 413 0018 FFF7FEFF 		bl	sdStart
 414              	.LVL20:
 415              	.LBE49:
 416              	.LBE50:
 417              	.LBB51:
 418              	.LBB52:
 419              		.loc 2 65 0
 420 001c 2A49     		ldr	r1, .L40+8
 421 001e 2B48     		ldr	r0, .L40+12
 422 0020 FFF7FEFF 		bl	gptStart
 423              	.LVL21:
 424              		.loc 2 67 0
 425 0024 4FF6FF71 		movw	r1, #65535
 426 0028 2848     		ldr	r0, .L40+12
 427 002a FFF7FEFF 		bl	gptStartContinuous
 428              	.LVL22:
 429              	.LBE52:
 430              	.LBE51:
 431              		.loc 2 209 0
 432 002e FFF7FEFF 		bl	i2c_start
 433              	.LVL23:
 434              		.loc 2 210 0
 435 0032 FFF7FEFF 		bl	imu_start
 436              	.LVL24:
 437              		.loc 2 213 0
 438 0036 264A     		ldr	r2, .L40+16
 439 0038 2649     		ldr	r1, .L40+20
 440 003a 2748     		ldr	r0, .L40+24
 441 003c FFF7FEFF 		bl	messagebus_init
 442              	.LVL25:
 443              		.loc 2 225 0
 444 0040 2649     		ldr	r1, .L40+28
 445 0042 2548     		ldr	r0, .L40+24
 446 0044 FFF7FEFF 		bl	messagebus_find_topic_blocking
 447              	.LVL26:
 448 0048 0646     		mov	r6, r0
 449              	.LVL27:
 450              		.loc 2 229 0
 451 004a 4FF4FA60 		mov	r0, #2000
 452              	.LVL28:
 453 004e FFF7FEFF 		bl	chThdSleep
 454              	.LVL29:
 455              		.loc 2 230 0
 456 0052 3046     		mov	r0, r6
ARM GAS  C:\Users\Ben\AppData\Local\Temp\ccFiRYUw.s 			page 9


 457 0054 C821     		movs	r1, #200
 458 0056 FFF7FEFF 		bl	imu_compute_offset
 459              	.LVL30:
 460              	.L38:
 461              		.loc 2 234 0 discriminator 1
 462 005a 5022     		movs	r2, #80
 463 005c 0CA9     		add	r1, sp, #48
 464 005e 3046     		mov	r0, r6
 465 0060 FFF7FEFF 		bl	messagebus_topic_wait
 466              	.LVL31:
 467              		.loc 2 256 0 discriminator 1
 468 0064 0C98     		ldr	r0, [sp, #48]	@ float
 469 0066 FFF7FEFF 		bl	__aeabi_f2d
 470              	.LVL32:
 471 006a 9DF87C30 		ldrb	r3, [sp, #124]	@ zero_extendqisi2
 472 006e 0A93     		str	r3, [sp, #40]
 473 0070 0446     		mov	r4, r0
 474 0072 1198     		ldr	r0, [sp, #68]	@ float
 475 0074 0D46     		mov	r5, r1
 476 0076 FFF7FEFF 		bl	__aeabi_f2d
 477              	.LVL33:
 478 007a CDE90801 		strd	r0, [sp, #32]
 479 007e 1098     		ldr	r0, [sp, #64]	@ float
 480 0080 FFF7FEFF 		bl	__aeabi_f2d
 481              	.LVL34:
 482 0084 CDE90601 		strd	r0, [sp, #24]
 483 0088 0F98     		ldr	r0, [sp, #60]	@ float
 484 008a FFF7FEFF 		bl	__aeabi_f2d
 485              	.LVL35:
 486 008e CDE90401 		strd	r0, [sp, #16]
 487 0092 0E98     		ldr	r0, [sp, #56]	@ float
 488 0094 FFF7FEFF 		bl	__aeabi_f2d
 489              	.LVL36:
 490 0098 CDE90201 		strd	r0, [sp, #8]
 491 009c 0D98     		ldr	r0, [sp, #52]	@ float
 492 009e FFF7FEFF 		bl	__aeabi_f2d
 493              	.LVL37:
 494 00a2 2246     		mov	r2, r4
 495 00a4 CDE90001 		strd	r0, [sp]
 496 00a8 2B46     		mov	r3, r5
 497 00aa 4146     		mov	r1, r8
 498 00ac 3846     		mov	r0, r7
 499 00ae FFF7FEFF 		bl	chprintf.constprop.0
 500              	.LVL38:
 501              		.loc 2 261 0 discriminator 1
 502 00b2 0CA8     		add	r0, sp, #48
 503 00b4 FFF7FEFF 		bl	show_gravity
 504              	.LVL39:
 505              		.loc 2 262 0 discriminator 1
 506 00b8 6420     		movs	r0, #100
 507 00ba FFF7FEFF 		bl	chThdSleep
 508              	.LVL40:
 509 00be CCE7     		b	.L38
 510              	.L41:
 511              		.align	2
 512              	.L40:
 513 00c0 00000000 		.word	SD3
ARM GAS  C:\Users\Ben\AppData\Local\Temp\ccFiRYUw.s 			page 10


 514 00c4 00000000 		.word	.LANCHOR1
 515 00c8 00000000 		.word	.LANCHOR2
 516 00cc 00000000 		.word	GPTD11
 517 00d0 00000000 		.word	.LANCHOR3
 518 00d4 00000000 		.word	.LANCHOR4
 519 00d8 00000000 		.word	.LANCHOR5
 520 00dc 00000000 		.word	.LC1
 521 00e0 00000000 		.word	.LC0
 522              		.cfi_endproc
 523              	.LFE263:
 524              		.size	main, .-main
 525              		.global	bus_condvar
 526              		.global	bus_lock
 527              		.global	bus
 528              		.section	.bss.bus,"aw",%nobits
 529              		.align	2
 530              		.set	.LANCHOR5,. + 0
 531              		.type	bus, %object
 532              		.size	bus, 12
 533              	bus:
 534 0000 00000000 		.space	12
 534      00000000 
 534      00000000 
 535              		.section	.data.bus_condvar,"aw",%progbits
 536              		.align	2
 537              		.set	.LANCHOR3,. + 0
 538              		.type	bus_condvar, %object
 539              		.size	bus_condvar, 8
 540              	bus_condvar:
 541 0000 00000000 		.word	bus_condvar
 542 0004 00000000 		.word	bus_condvar
 543              		.section	.data.bus_lock,"aw",%progbits
 544              		.align	2
 545              		.set	.LANCHOR4,. + 0
 546              		.type	bus_lock, %object
 547              		.size	bus_lock, 20
 548              	bus_lock:
 549 0000 00000000 		.word	bus_lock
 550 0004 00000000 		.word	bus_lock
 551 0008 00000000 		.word	0
 552 000c 00000000 		.word	0
 553 0010 00000000 		.word	0
 554              		.section	.data.ser_cfg.10164,"aw",%progbits
 555              		.align	2
 556              		.set	.LANCHOR1,. + 0
 557              		.type	ser_cfg.10164, %object
 558              		.size	ser_cfg.10164, 12
 559              	ser_cfg.10164:
 560 0000 00C20100 		.word	115200
 561 0004 0000     		.short	0
 562 0006 0000     		.short	0
 563 0008 0000     		.short	0
 564 000a 0000     		.space	2
 565              		.section	.rodata.__func__.7153,"a",%progbits
 566              		.align	2
 567              		.set	.LANCHOR0,. + 0
 568              		.type	__func__.7153, %object
ARM GAS  C:\Users\Ben\AppData\Local\Temp\ccFiRYUw.s 			page 11


 569              		.size	__func__.7153, 12
 570              	__func__.7153:
 571 0000 63685379 		.ascii	"chSysUnlock\000"
 571      73556E6C 
 571      6F636B00 
 572              		.section	.rodata.chprintf.constprop.0.str1.4,"aMS",%progbits,1
 573              		.align	2
 574              	.LC0:
 575 0000 52656164 		.ascii	"Readable\015\012%Ax=%.2f Ay=%.2f Az=%.2f Gx=%.2f Gy"
 575      61626C65 
 575      0D0A2541 
 575      783D252E 
 575      32662041 
 576 002d 3D252E32 		.ascii	"=%.2f Gz=%.2f (%x)\015\012\012\000"
 576      6620477A 
 576      3D252E32 
 576      66202825 
 576      78290D0A 
 577              		.section	.rodata.gpt11cfg.10168,"a",%progbits
 578              		.align	2
 579              		.set	.LANCHOR2,. + 0
 580              		.type	gpt11cfg.10168, %object
 581              		.size	gpt11cfg.10168, 16
 582              	gpt11cfg.10168:
 583 0000 40420F00 		.word	1000000
 584 0004 00000000 		.word	0
 585 0008 00000000 		.word	0
 586 000c 00000000 		.word	0
 587              		.section	.rodata.main.str1.4,"aMS",%progbits,1
 588              		.align	2
 589              	.LC1:
 590 0000 2F696D75 		.ascii	"/imu\000"
 590      00
 591              		.text
 592              	.Letext0:
 593              		.file 5 "c:\\users\\ben\\documents\\eclipse_e-puck2_win32_29_jan_2020\\eclipse_e-puck2\\tools\\gcc
 594              		.file 6 "c:\\users\\ben\\documents\\eclipse_e-puck2_win32_29_jan_2020\\eclipse_e-puck2\\tools\\gcc
 595              		.file 7 "c:\\users\\ben\\documents\\eclipse_e-puck2_win32_29_jan_2020\\eclipse_e-puck2\\tools\\gcc
 596              		.file 8 "../../lib/ChibiOS/os/rt/ports/ARMCMx/compilers/GCC/chtypes.h"
 597              		.file 9 "../../lib/ChibiOS/os/rt/include/chsystypes.h"
 598              		.file 10 "../../lib/ChibiOS/os/rt/include/chschd.h"
 599              		.file 11 "../../lib/ChibiOS/os/ext/CMSIS/include/core_cm4.h"
 600              		.file 12 "../../lib/ChibiOS/os/ext/CMSIS/ST/system_stm32f4xx.h"
 601              		.file 13 "../../lib/ChibiOS/os/ext/CMSIS/ST/stm32f407xx.h"
 602              		.file 14 "../../lib/ChibiOS/os/rt/ports/ARMCMx/chcore.h"
 603              		.file 15 "../../lib/ChibiOS/os/rt/ports/ARMCMx/chcore_v7m.h"
 604              		.file 16 "../../lib/ChibiOS/os/rt/include/chdebug.h"
 605              		.file 17 "../../lib/ChibiOS/os/rt/include/chtm.h"
 606              		.file 18 "../../lib/ChibiOS/os/rt/include/chstats.h"
 607              		.file 19 "../../lib/ChibiOS/os/rt/include/chsem.h"
 608              		.file 20 "../../lib/ChibiOS/os/rt/include/chmtx.h"
 609              		.file 21 "../../lib/ChibiOS/os/rt/include/chregistry.h"
 610              		.file 22 "../../lib/ChibiOS/os/rt/include/chcond.h"
 611              		.file 23 "../../lib/ChibiOS/os/rt/include/chevents.h"
 612              		.file 24 "../../lib/ChibiOS/os/rt/include/chqueues.h"
 613              		.file 25 "../../lib/ChibiOS/os/rt/include/chstreams.h"
 614              		.file 26 "../../lib/ChibiOS/os/hal/ports/STM32/STM32F4xx/stm32_dma.h"
ARM GAS  C:\Users\Ben\AppData\Local\Temp\ccFiRYUw.s 			page 12


 615              		.file 27 "../../lib/ChibiOS/os/hal/ports/STM32/LLD/GPIOv2/pal_lld.h"
 616              		.file 28 "../../lib/ChibiOS/os/hal/include/gpt.h"
 617              		.file 29 "../../lib/ChibiOS/os/hal/ports/STM32/LLD/TIMv1/gpt_lld.h"
 618              		.file 30 "../../lib/ChibiOS/os/hal/ports/STM32/LLD/TIMv1/stm32_tim.h"
 619              		.file 31 "../../lib/ChibiOS/os/hal/include/i2c.h"
 620              		.file 32 "../../lib/ChibiOS/os/hal/ports/STM32/LLD/I2Cv1/i2c_lld.h"
 621              		.file 33 "../../lib/ChibiOS/os/hal/include/serial.h"
 622              		.file 34 "../../lib/ChibiOS/os/hal/ports/STM32/LLD/USARTv1/serial_lld.h"
 623              		.file 35 "../../lib/ChibiOS/os/hal/include/usb.h"
 624              		.file 36 "../../lib/ChibiOS/os/hal/ports/STM32/LLD/OTGv1/usb_lld.h"
 625              		.file 37 "../../lib/ChibiOS/os/hal/ports/STM32/LLD/OTGv1/stm32_otg.h"
 626              		.file 38 "c:\\users\\ben\\documents\\eclipse_e-puck2_win32_29_jan_2020\\eclipse_e-puck2\\tools\\gc
 627              		.file 39 "c:\\users\\ben\\documents\\eclipse_e-puck2_win32_29_jan_2020\\eclipse_e-puck2\\tools\\gc
 628              		.file 40 "c:\\users\\ben\\documents\\eclipse_e-puck2_win32_29_jan_2020\\eclipse_e-puck2\\tools\\gc
 629              		.file 41 "c:\\users\\ben\\documents\\eclipse_e-puck2_win32_29_jan_2020\\eclipse_e-puck2\\tools\\gc
 630              		.file 42 "c:\\users\\ben\\documents\\eclipse_e-puck2_win32_29_jan_2020\\eclipse_e-puck2\\tools\\gc
 631              		.file 43 "<built-in>"
 632              		.file 44 "c:\\users\\ben\\documents\\eclipse_e-puck2_win32_29_jan_2020\\eclipse_e-puck2\\tools\\gc
 633              		.file 45 "../../lib/msgbus/messagebus.h"
 634              		.file 46 "./mpu9250.h"
 635              		.file 47 "./imu.h"
 636              		.file 48 "../../lib/ChibiOS/os/hal/include/hal.h"
 637              		.file 49 "./i2c_bus.h"
 638              		.file 50 "../../lib/ChibiOS/os/rt/include/chthreads.h"